Certificate:
    Data:
        Version: 3 (0x2)
        Serial Number: 1 (0x1)
    Signature Algorithm: sha256WithRSAEncryption
        Issuer: DC=com, DC=example, O=Example Inc, OU=Example Root CA, CN=Example Root CA
        Validity
            Not Before: May 12 15:30:10 2018 GMT
            Not After : May 11 15:30:10 2028 GMT
        Subject: DC=com, DC=example, O=Example Inc, OU=Example Root CA, CN=Example Root CA
        Subject Public Key Info:
            Public Key Algorithm: rsaEncryption
                Public-Key: (2048 bit)
                Modulus:
                    00:ce:71:06:08:ae:cb:b5:ab:64:4d:80:5e:2c:aa:
                    48:48:59:b9:4f:ae:b4:5f:8e:c0:99:4a:37:5e:02:
                    d1:41:5e:da:40:a9:f6:b9:21:8c:b0:fe:a5:10:34:
                    db:39:b9:fe:f3:a2:90:a3:bf:57:79:bd:0d:22:45:
                    8b:4c:6f:16:4b:c7:db:63:38:83:a3:69:28:f2:3e:
                    1f:9a:a7:f0:73:f0:8c:e8:ee:17:e7:81:27:98:bf:
                    e6:57:77:32:d3:ed:70:df:ab:a3:a7:b0:5d:51:30:
                    e1:db:a2:1e:21:77:81:c5:66:66:8e:a3:22:18:db:
                    b0:10:70:da:f7:0f:98:15:ec:5f:3a:de:f2:8c:17:
                    68:f0:4c:00:c8:54:d9:6a:0a:1c:9c:88:b1:68:80:
                    72:20:4d:f6:92:fb:21:87:d4:68:4b:f6:dc:5b:95:
                    ca:d8:0e:30:72:ae:46:e1:ed:4a:a0:82:95:99:a5:
                    13:53:8a:c7:dd:4e:ab:07:4a:cb:a4:c5:af:3e:64:
                    8e:f0:0e:03:ee:83:97:5b:f1:a8:40:23:0d:c2:ae:
                    7e:f0:4a:6c:fd:f6:6e:f5:f7:18:07:7f:fa:92:c0:
                    47:98:76:9f:a6:97:cb:3d:e1:ba:69:df:26:b5:91:
                    02:d4:dc:3c:a0:d1:76:7e:10:44:bf:f1:ca:8d:11:
                    be:63
                Exponent: 65537 (0x10001)
        X509v3 extensions:
            X509v3 Key Usage: critical
                Certificate Sign, CRL Sign
            X509v3 Basic Constraints: critical
                CA:TRUE
            X509v3 Subject Key Identifier: 
                E0:47:F2:68:51:29:39:F5:85:3D:A3:E0:58:4F:83:97:1C:08:5E:1A
            X509v3 Authority Key Identifier: 
                keyid:E0:47:F2:68:51:29:39:F5:85:3D:A3:E0:58:4F:83:97:1C:08:5E:1A

    Signature Algorithm: sha256WithRSAEncryption
         cb:f3:c1:fc:81:11:a3:22:00:c1:62:f3:32:ec:db:9d:3c:84:
         88:6d:27:f3:cd:de:db:c0:ff:4c:2d:bd:7f:8b:9f:63:cb:6e:
         1a:12:21:0b:50:43:a1:8b:85:99:b8:0b:a9:d9:60:48:22:4d:
         a9:87:9b:57:84:97:b8:a1:1c:1f:6b:af:22:53:7c:cc:7f:c6:
         d8:da:04:e5:a0:f0:ec:3e:a9:52:2e:d7:a5:70:0c:21:4e:32:
         4e:bf:43:aa:ed:3a:cf:e9:d3:9f:5f:93:f6:d9:34:f9:65:74:
         b5:a3:29:1b:ee:e3:91:a1:fc:1b:d2:c0:dd:7c:6c:3e:0c:fc:
         80:59:11:1d:cd:fc:3c:ff:21:ac:d8:a3:05:80:66:b5:7c:e2:
         10:8e:e5:2a:55:25:92:89:3b:f2:16:17:19:c8:e8:39:e0:96:
         18:d6:62:9c:de:bb:6c:a6:e2:40:34:04:6e:8f:0d:0e:d0:d5:
         81:d2:da:03:06:f1:d8:31:ac:e9:a3:6c:42:fc:c8:7e:31:30:
         05:66:e8:55:f9:ac:97:ae:25:2e:09:9d:63:77:79:94:32:33:
         19:08:4b:2c:5c:7d:73:7d:cf:ae:56:76:ff:3c:6e:43:57:7e:
         aa:49:a2:08:ac:48:d5:1d:14:56:8f:0d:67:8c:e0:e6:a1:6f:
         db:d6:56:be
-----BEGIN CERTIFICATE-----
MIIDzjCCAragAwIBAgIBATANBgkqhkiG9w0BAQsFADB4MRMwEQYKCZImiZPyLGQB
GRYDY29tMRcwFQYKCZImiZPyLGQBGRYHZXhhbXBsZTEUMBIGA1UECgwLRXhhbXBs
ZSBJbmMxGDAWBgNVBAsMD0V4YW1wbGUgUm9vdCBDQTEYMBYGA1UEAwwPRXhhbXBs
ZSBSb290IENBMB4XDTE4MDUxMjE1MzAxMFoXDTI4MDUxMTE1MzAxMFoweDETMBEG
CgmSJomT8ixkARkWA2NvbTEXMBUGCgmSJomT8ixkARkWB2V4YW1wbGUxFDASBgNV
BAoMC0V4YW1wbGUgSW5jMRgwFgYDVQQLDA9FeGFtcGxlIFJvb3QgQ0ExGDAWBgNV
BAMMD0V4YW1wbGUgUm9vdCBDQTCCASIwDQYJKoZIhvcNAQEBBQADggEPADCCAQoC
ggEBAM5xBgiuy7WrZE2AXiyqSEhZuU+utF+OwJlKN14C0UFe2kCp9rkhjLD+pRA0
2zm5/vOikKO/V3m9DSJFi0xvFkvH22M4g6NpKPI+H5qn8HPwjOjuF+eBJ5i/5ld3
MtPtcN+ro6ewXVEw4duiHiF3gcVmZo6jIhjbsBBw2vcPmBXsXzre8owXaPBMAMhU
2WoKHJyIsWiAciBN9pL7IYfUaEv23FuVytgOMHKuRuHtSqCClZmlE1OKx91OqwdK
y6TFrz5kjvAOA+6Dl1vxqEAjDcKufvBKbP32bvX3GAd/+pLAR5h2n6aXyz3humnf
JrWRAtTcPKDRdn4QRL/xyo0RvmMCAwEAAaNjMGEwDgYDVR0PAQH/BAQDAgEGMA8G
A1UdEwEB/wQFMAMBAf8wHQYDVR0OBBYEFOBH8mhRKTn1hT2j4FhPg5ccCF4aMB8G
A1UdIwQYMBaAFOBH8mhRKTn1hT2j4FhPg5ccCF4aMA0GCSqGSIb3DQEBCwUAA4IB
AQDL88H8gRGjIgDBYvMy7NudPISIbSfzzd7bwP9MLb1/i59jy24aEiELUEOhi4WZ
uAup2WBIIk2ph5tXhJe4oRwfa68iU3zMf8bY2gTloPDsPqlSLtelcAwhTjJOv0Oq
7TrP6dOfX5P22TT5ZXS1oykb7uORofwb0sDdfGw+DPyAWREdzfw8/yGs2KMFgGa1
fOIQjuUqVSWSiTvyFhcZyOg54JYY1mKc3rtspuJANARujw0O0NWB0toDBvHYMazp
o2xC/Mh+MTAFZuhV+ayXriUuCZ1jd3mUMjMZCEssXH1zfc+uVnb/PG5DV36qSaII
rEjVHRRWjw1njODmoW/b1la+
-----END CERTIFICATE-----
