Certificate:
    Data:
        Version: 3 (0x2)
        Serial Number: 1 (0x1)
        Signature Algorithm: sha1WithRSAEncryption
        Issuer: DC=org, DC=simple, O=Simple Inc, OU=Simple Root CA, CN=Simple Root CA
        Validity
            Not Before: Feb 25 11:54:31 2016 GMT
            Not After : Feb 24 11:54:31 2026 GMT
        Subject: DC=org, DC=simple, O=Simple Inc, OU=Simple Root CA, CN=Simple Root CA
        Subject Public Key Info:
            Public Key Algorithm: rsaEncryption
            RSA Public Key: (2048 bit)
                Modulus (2048 bit):
                    00:c4:62:a8:8d:28:e7:3f:fd:34:d5:95:0d:90:e8:
                    54:16:4a:02:a7:aa:7e:44:96:dd:6c:ce:67:db:4e:
                    d7:3b:f7:ce:76:a7:f7:dc:12:01:e4:c5:75:57:14:
                    d7:a5:79:e8:85:a0:dc:51:f1:2a:6b:e1:26:d2:8d:
                    71:45:80:95:c0:c6:63:e3:d7:e1:5e:c1:3f:f0:94:
                    b0:7e:18:09:da:61:c6:b3:55:e2:2d:13:55:3a:bd:
                    3d:e1:b6:52:ff:f3:e8:61:45:00:3f:f4:f7:49:e0:
                    1c:69:ad:98:37:34:b6:07:7c:b1:a6:1c:c3:76:fb:
                    0e:a2:2d:b5:81:b7:07:22:12:ca:12:89:be:55:83:
                    ae:cd:4e:ed:61:90:f9:72:c9:d5:0a:4d:d3:af:ac:
                    d3:af:ab:9f:8c:4e:84:d5:4c:4a:7c:25:f9:7e:22:
                    9d:3b:e6:89:c4:e7:54:25:9a:cb:4b:4f:9a:bd:e9:
                    6a:ea:de:c1:fa:87:a3:6f:c4:a1:a2:e8:69:91:7f:
                    3c:dc:c9:4c:b0:1b:97:3c:61:23:72:0e:64:6c:98:
                    9b:55:23:11:16:aa:44:f6:35:12:f4:2e:5d:45:28:
                    5a:ef:94:95:d7:60:93:2c:f5:62:e6:26:c5:16:10:
                    ed:ab:9b:39:79:a9:a0:06:4b:31:c7:52:36:80:f7:
                    b4:07
                Exponent: 65537 (0x10001)
        X509v3 extensions:
            X509v3 Key Usage: critical
                Certificate Sign, CRL Sign
            X509v3 Basic Constraints: critical
                CA:TRUE
            X509v3 Subject Key Identifier: 
                8B:6C:D7:C7:0B:D1:6A:72:13:77:E6:2D:93:B4:59:63:86:6B:EB:2A
            X509v3 Authority Key Identifier: 
                keyid:8B:6C:D7:C7:0B:D1:6A:72:13:77:E6:2D:93:B4:59:63:86:6B:EB:2A

    Signature Algorithm: sha1WithRSAEncryption
        79:c4:18:a8:7a:c1:88:ab:3d:6c:6b:a8:ed:22:5c:e5:0b:fe:
        59:21:e3:9d:fd:09:7b:30:d9:96:e3:b9:ba:39:47:cb:52:73:
        78:99:ae:83:37:41:b1:de:29:e7:91:db:e3:15:d2:50:40:da:
        9c:54:a3:32:2d:fd:79:36:c1:88:86:2a:cb:73:74:50:84:73:
        48:80:6d:63:b8:44:86:08:50:b5:da:c0:35:de:21:be:31:ae:
        78:31:c0:d0:74:af:01:61:6d:a0:73:9e:a7:6f:2c:15:71:66:
        f8:ea:32:cf:82:7e:1b:5e:a8:dd:96:59:0f:59:32:5b:18:23:
        75:50:77:49:7f:22:f0:61:54:56:07:bb:a2:fb:50:86:25:87:
        34:17:2e:07:05:b0:53:b5:8b:ef:00:a3:77:e8:2f:2e:0f:07:
        40:b3:5e:e3:1b:6b:50:ee:db:d7:a9:70:39:84:07:fa:f7:78:
        cf:d9:c5:d7:18:29:78:9f:84:24:57:b3:b1:93:5b:96:aa:a9:
        af:0b:7a:ea:0a:de:fe:f4:e5:89:f3:08:7f:7e:a1:aa:9f:1b:
        bb:8b:1b:c8:13:be:da:9b:71:d2:72:e0:98:8b:2f:ce:8d:f0:
        ef:c7:de:11:d4:f9:ce:51:91:d5:10:5f:cb:cd:d6:2c:7d:64:
        61:1f:9a:cb
-----BEGIN CERTIFICATE-----
MIIDxjCCAq6gAwIBAgIBATANBgkqhkiG9w0BAQUFADB0MRMwEQYKCZImiZPyLGQB
GRYDb3JnMRYwFAYKCZImiZPyLGQBGRYGc2ltcGxlMRMwEQYDVQQKDApTaW1wbGUg
SW5jMRcwFQYDVQQLDA5TaW1wbGUgUm9vdCBDQTEXMBUGA1UEAwwOU2ltcGxlIFJv
b3QgQ0EwHhcNMTYwMjI1MTE1NDMxWhcNMjYwMjI0MTE1NDMxWjB0MRMwEQYKCZIm
iZPyLGQBGRYDb3JnMRYwFAYKCZImiZPyLGQBGRYGc2ltcGxlMRMwEQYDVQQKDApT
aW1wbGUgSW5jMRcwFQYDVQQLDA5TaW1wbGUgUm9vdCBDQTEXMBUGA1UEAwwOU2lt
cGxlIFJvb3QgQ0EwggEiMA0GCSqGSIb3DQEBAQUAA4IBDwAwggEKAoIBAQDEYqiN
KOc//TTVlQ2Q6FQWSgKnqn5Elt1szmfbTtc79852p/fcEgHkxXVXFNeleeiFoNxR
8Spr4SbSjXFFgJXAxmPj1+FewT/wlLB+GAnaYcazVeItE1U6vT3htlL/8+hhRQA/
9PdJ4BxprZg3NLYHfLGmHMN2+w6iLbWBtwciEsoSib5Vg67NTu1hkPlyydUKTdOv
rNOvq5+MToTVTEp8Jfl+Ip075onE51QlmstLT5q96Wrq3sH6h6NvxKGi6GmRfzzc
yUywG5c8YSNyDmRsmJtVIxEWqkT2NRL0Ll1FKFrvlJXXYJMs9WLmJsUWEO2rmzl5
qaAGSzHHUjaA97QHAgMBAAGjYzBhMA4GA1UdDwEB/wQEAwIBBjAPBgNVHRMBAf8E
BTADAQH/MB0GA1UdDgQWBBSLbNfHC9FqchN35i2TtFljhmvrKjAfBgNVHSMEGDAW
gBSLbNfHC9FqchN35i2TtFljhmvrKjANBgkqhkiG9w0BAQUFAAOCAQEAecQYqHrB
iKs9bGuo7SJc5Qv+WSHjnf0JezDZluO5ujlHy1JzeJmugzdBsd4p55Hb4xXSUEDa
nFSjMi39eTbBiIYqy3N0UIRzSIBtY7hEhghQtdrANd4hvjGueDHA0HSvAWFtoHOe
p28sFXFm+Ooyz4J+G16o3ZZZD1kyWxgjdVB3SX8i8GFUVge7ovtQhiWHNBcuBwWw
U7WL7wCjd+gvLg8HQLNe4xtrUO7b16lwOYQH+vd4z9nF1xgpeJ+EJFezsZNblqqp
rwt66gre/vTlifMIf36hqp8bu4sbyBO+2ptx0nLgmIsvzo3w78feEdT5zlGR1RBf
y83WLH1kYR+ayw==
-----END CERTIFICATE-----
