Certificate:
    Data:
        Version: 3 (0x2)
        Serial Number: 3 (0x3)
        Signature Algorithm: sha1WithRSAEncryption
        Issuer: DC=org, DC=simple, O=Simple Inc, OU=Simple Root CA, CN=Simple Root CA
        Validity
            Not Before: Apr 19 09:20:07 2016 GMT
            Not After : Apr 19 09:20:07 2026 GMT
        Subject: DC=org, DC=simple, O=Simple Inc, OU=Simple Root CA, CN=Simple Root CA
        Subject Public Key Info:
            Public Key Algorithm: rsaEncryption
            RSA Public Key: (2048 bit)
                Modulus (2048 bit):
                    00:9b:af:f1:09:3b:b8:37:46:17:2d:29:a8:a7:b2:
                    b0:85:7a:46:96:82:08:e3:6d:8a:b7:8e:39:86:44:
                    ca:0c:77:0f:92:e3:9d:9b:b1:53:bd:03:d7:ed:f3:
                    f8:b8:33:47:81:09:87:03:27:7f:a0:35:0c:77:84:
                    8d:b7:92:df:27:51:00:b9:ad:f7:30:a3:27:db:dc:
                    7b:15:2e:46:2a:0d:7f:15:d3:fd:5b:cb:b5:36:26:
                    d2:33:a3:40:5c:86:1c:d9:4b:b1:19:49:5e:a0:a8:
                    5d:5f:49:b1:19:f7:34:ca:fb:9c:5d:18:0f:9d:0b:
                    87:aa:ee:08:5d:32:b7:d2:38:e9:33:a1:84:94:de:
                    ec:c6:fa:fb:1c:37:20:ca:f3:7f:b7:58:d7:86:38:
                    6b:ea:70:ff:74:63:d1:b2:6b:8e:ae:f1:ab:97:9c:
                    d1:a8:ea:f1:87:14:62:34:4e:96:fd:52:ac:5a:a3:
                    5c:30:72:af:3e:5e:94:bf:e5:25:98:7d:0b:4a:7f:
                    29:55:28:72:39:e5:fe:98:57:26:4f:03:88:89:ef:
                    63:13:ce:33:f1:81:c8:c6:99:3e:59:b5:a7:90:ca:
                    af:93:17:27:d2:42:6e:0e:0c:25:73:5e:b7:2e:7f:
                    ec:ac:0f:0b:83:f8:f2:22:f8:d1:ee:6b:5c:08:cd:
                    50:0f
                Exponent: 65537 (0x10001)
        X509v3 extensions:
            X509v3 Key Usage: critical
                Certificate Sign, CRL Sign
            X509v3 Basic Constraints: critical
                CA:TRUE
            X509v3 Subject Key Identifier: 
                8E:26:FC:7A:9C:67:1E:38:99:A7:A2:CF:BB:9A:FE:E9:C1:33:A3:BF
            X509v3 Authority Key Identifier: 
                keyid:8E:26:FC:7A:9C:67:1E:38:99:A7:A2:CF:BB:9A:FE:E9:C1:33:A3:BF

    Signature Algorithm: sha1WithRSAEncryption
        72:d6:21:f1:dc:96:0c:f8:c5:27:55:f3:e2:a0:58:72:a4:7d:
        9e:84:fb:13:a1:14:ec:80:4b:e3:d7:f5:bf:f1:1a:21:dd:aa:
        f8:61:db:20:63:cd:21:51:7a:e6:a1:a3:a6:b8:3e:ae:92:3f:
        0c:d7:07:c8:20:4d:fb:7e:cf:aa:68:89:46:e6:3a:ca:a6:ab:
        2e:c4:bf:51:68:82:fe:e1:86:31:dc:f4:88:dc:65:4a:4f:86:
        3a:9c:6b:88:6a:df:d0:bd:8f:65:20:1c:f7:9d:4a:b2:cc:1b:
        ea:40:c6:56:87:70:83:f1:f6:fe:a6:d6:ef:4e:44:bd:0c:92:
        c5:64:5b:af:89:43:90:f9:fd:ec:0b:41:85:6f:bc:8a:cb:7a:
        da:07:b4:b8:d0:a8:7f:c3:e6:0d:be:6d:f4:83:14:f9:3e:7e:
        0b:f3:32:97:25:e6:1d:79:bb:4a:d1:9d:84:61:b4:db:a0:81:
        8f:47:9a:c6:40:72:9a:71:c9:a7:b7:e4:a1:59:d2:23:3f:7d:
        0a:50:90:29:29:e5:1c:46:0c:20:84:2a:82:35:bc:27:98:1f:
        b3:80:c2:d5:11:d8:a2:ca:28:8c:07:99:0d:a6:2c:c3:da:0c:
        bb:54:bc:05:be:15:4b:c0:bd:e2:f3:92:46:4f:46:fe:e6:11:
        3f:d5:50:b2
-----BEGIN CERTIFICATE-----
MIIDxjCCAq6gAwIBAgIBAzANBgkqhkiG9w0BAQUFADB0MRMwEQYKCZImiZPyLGQB
GRYDb3JnMRYwFAYKCZImiZPyLGQBGRYGc2ltcGxlMRMwEQYDVQQKDApTaW1wbGUg
SW5jMRcwFQYDVQQLDA5TaW1wbGUgUm9vdCBDQTEXMBUGA1UEAwwOU2ltcGxlIFJv
b3QgQ0EwHhcNMTYwNDE5MDkyMDA3WhcNMjYwNDE5MDkyMDA3WjB0MRMwEQYKCZIm
iZPyLGQBGRYDb3JnMRYwFAYKCZImiZPyLGQBGRYGc2ltcGxlMRMwEQYDVQQKDApT
aW1wbGUgSW5jMRcwFQYDVQQLDA5TaW1wbGUgUm9vdCBDQTEXMBUGA1UEAwwOU2lt
cGxlIFJvb3QgQ0EwggEiMA0GCSqGSIb3DQEBAQUAA4IBDwAwggEKAoIBAQCbr/EJ
O7g3RhctKainsrCFekaWggjjbYq3jjmGRMoMdw+S452bsVO9A9ft8/i4M0eBCYcD
J3+gNQx3hI23kt8nUQC5rfcwoyfb3HsVLkYqDX8V0/1by7U2JtIzo0BchhzZS7EZ
SV6gqF1fSbEZ9zTK+5xdGA+dC4eq7ghdMrfSOOkzoYSU3uzG+vscNyDK83+3WNeG
OGvqcP90Y9Gya46u8auXnNGo6vGHFGI0Tpb9Uqxao1wwcq8+XpS/5SWYfQtKfylV
KHI55f6YVyZPA4iJ72MTzjPxgcjGmT5ZtaeQyq+TFyfSQm4ODCVzXrcuf+ysDwuD
+PIi+NHua1wIzVAPAgMBAAGjYzBhMA4GA1UdDwEB/wQEAwIBBjAPBgNVHRMBAf8E
BTADAQH/MB0GA1UdDgQWBBSOJvx6nGceOJmnos+7mv7pwTOjvzAfBgNVHSMEGDAW
gBSOJvx6nGceOJmnos+7mv7pwTOjvzANBgkqhkiG9w0BAQUFAAOCAQEActYh8dyW
DPjFJ1Xz4qBYcqR9noT7E6EU7IBL49f1v/EaId2q+GHbIGPNIVF65qGjprg+rpI/
DNcHyCBN+37PqmiJRuY6yqarLsS/UWiC/uGGMdz0iNxlSk+GOpxriGrf0L2PZSAc
951Ksswb6kDGVodwg/H2/qbW705EvQySxWRbr4lDkPn97AtBhW+8ist62ge0uNCo
f8PmDb5t9IMU+T5+C/MylyXmHXm7StGdhGG026CBj0eaxkBymnHJp7fkoVnSIz99
ClCQKSnlHEYMIIQqgjW8J5gfs4DC1RHYosoojAeZDaYsw9oMu1S8Bb4VS8C94vOS
Rk9G/uYRP9VQsg==
-----END CERTIFICATE-----
