Certificate:
    Data:
        Version: 3 (0x2)
        Serial Number: 4 (0x4)
        Signature Algorithm: sha1WithRSAEncryption
        Issuer: DC=org, DC=simple, O=Simple Inc, OU=Simple Root CA, CN=Simple Root CA
        Validity
            Not Before: Apr 19 09:22:34 2016 GMT
            Not After : Apr 19 09:22:34 2026 GMT
        Subject: DC=org, DC=simple, O=Simple Inc, OU=Simple Signing CA, CN=Simple Signing CA
        Subject Public Key Info:
            Public Key Algorithm: rsaEncryption
            RSA Public Key: (2048 bit)
                Modulus (2048 bit):
                    00:c5:98:30:0b:89:23:18:45:67:bb:8d:b0:22:ec:
                    78:3b:64:32:f0:99:60:8d:00:35:1f:03:a9:d8:c3:
                    82:92:ca:4c:8c:8b:3b:e4:45:77:df:76:71:42:c0:
                    77:33:d2:6c:24:37:29:a3:95:4f:ea:4a:e1:eb:73:
                    18:d8:47:e6:6c:7f:b8:3b:ff:ef:94:92:e6:1c:58:
                    33:ed:81:d8:22:f5:e5:23:df:4c:43:de:c9:b3:75:
                    b4:1c:7f:f5:c4:95:89:02:bf:41:ab:9f:c1:a8:9f:
                    02:0d:52:d3:b5:a8:c0:94:d4:c6:0f:da:fe:bb:37:
                    90:77:bf:ba:46:0d:ad:60:d4:53:1a:0e:cf:f0:f5:
                    fc:59:c1:d1:66:51:74:ba:c4:5a:11:25:11:34:61:
                    f0:76:70:73:ac:3a:9f:20:c5:47:55:b4:c4:b5:d1:
                    ca:9b:6c:b7:58:8e:3e:67:28:9a:2b:96:78:9b:55:
                    7b:26:58:dc:65:ac:4d:5c:60:48:7e:21:e3:eb:81:
                    42:92:18:d5:ce:d1:51:08:21:25:1e:56:46:fb:04:
                    85:b3:dc:36:49:8c:cc:3b:e9:d2:eb:03:7e:c2:ef:
                    08:7f:e8:19:93:1d:5f:d8:f2:d2:a9:35:b2:96:91:
                    36:96:c2:08:2c:b4:f9:6b:6d:37:ff:7e:f7:59:2c:
                    d1:67
                Exponent: 65537 (0x10001)
        X509v3 extensions:
            X509v3 Key Usage: critical
                Certificate Sign, CRL Sign
            X509v3 Basic Constraints: critical
                CA:TRUE, pathlen:0
            X509v3 Subject Key Identifier: 
                0A:81:26:A3:E1:C9:0E:86:79:B4:7D:46:E9:FF:C1:9A:BF:C3:0C:74
            X509v3 Authority Key Identifier: 
                keyid:8E:26:FC:7A:9C:67:1E:38:99:A7:A2:CF:BB:9A:FE:E9:C1:33:A3:BF

    Signature Algorithm: sha1WithRSAEncryption
        1a:b0:31:ae:ea:64:48:6a:26:36:33:83:64:2d:92:07:f2:dc:
        cd:88:a7:2b:39:cd:60:ba:1d:94:36:9a:d0:db:35:76:4a:a0:
        0d:e7:f5:90:a7:fc:c4:6f:32:cb:44:c4:06:b0:b8:ea:38:1b:
        0f:97:b3:43:a8:03:5c:55:45:82:e3:b6:b2:c5:f1:45:7f:1b:
        ba:01:c7:16:5d:cf:b5:57:9f:6a:bd:87:f4:c0:84:eb:3b:98:
        de:a7:89:29:54:a4:1b:16:2a:fe:9d:74:bf:1a:cf:c2:80:dc:
        48:d7:7a:61:81:c6:f6:28:5d:fb:40:f2:4c:6d:f9:f0:dd:e0:
        4f:9c:74:60:81:a0:67:06:b2:03:07:9e:33:ef:80:00:2e:08:
        e6:c4:1d:f8:46:a1:d0:2c:e4:86:09:b5:0f:1b:14:c4:54:30:
        41:6d:b4:c9:f0:85:97:a0:34:b1:62:62:a0:1f:c2:2c:ee:c3:
        fb:de:5a:85:b1:6e:fc:ca:1d:b9:f4:40:9b:fb:fc:da:31:2f:
        a8:82:ae:d9:02:0a:cb:76:93:6c:37:65:c3:38:89:58:03:f8:
        97:d5:73:5a:3f:2d:c5:db:e5:89:8e:79:e3:e0:b5:fd:aa:01:
        33:cf:aa:95:03:9f:6a:f9:fd:5f:98:b8:38:41:6a:44:e3:8a:
        8e:7c:98:8c
-----BEGIN CERTIFICATE-----
MIIDzzCCAregAwIBAgIBBDANBgkqhkiG9w0BAQUFADB0MRMwEQYKCZImiZPyLGQB
GRYDb3JnMRYwFAYKCZImiZPyLGQBGRYGc2ltcGxlMRMwEQYDVQQKDApTaW1wbGUg
SW5jMRcwFQYDVQQLDA5TaW1wbGUgUm9vdCBDQTEXMBUGA1UEAwwOU2ltcGxlIFJv
b3QgQ0EwHhcNMTYwNDE5MDkyMjM0WhcNMjYwNDE5MDkyMjM0WjB6MRMwEQYKCZIm
iZPyLGQBGRYDb3JnMRYwFAYKCZImiZPyLGQBGRYGc2ltcGxlMRMwEQYDVQQKDApT
aW1wbGUgSW5jMRowGAYDVQQLDBFTaW1wbGUgU2lnbmluZyBDQTEaMBgGA1UEAwwR
U2ltcGxlIFNpZ25pbmcgQ0EwggEiMA0GCSqGSIb3DQEBAQUAA4IBDwAwggEKAoIB
AQDFmDALiSMYRWe7jbAi7Hg7ZDLwmWCNADUfA6nYw4KSykyMizvkRXffdnFCwHcz
0mwkNymjlU/qSuHrcxjYR+Zsf7g7/++UkuYcWDPtgdgi9eUj30xD3smzdbQcf/XE
lYkCv0Grn8GonwINUtO1qMCU1MYP2v67N5B3v7pGDa1g1FMaDs/w9fxZwdFmUXS6
xFoRJRE0YfB2cHOsOp8gxUdVtMS10cqbbLdYjj5nKJorlnibVXsmWNxlrE1cYEh+
IePrgUKSGNXO0VEIISUeVkb7BIWz3DZJjMw76dLrA37C7wh/6BmTHV/Y8tKpNbKW
kTaWwggstPlrbTf/fvdZLNFnAgMBAAGjZjBkMA4GA1UdDwEB/wQEAwIBBjASBgNV
HRMBAf8ECDAGAQH/AgEAMB0GA1UdDgQWBBQKgSaj4ckOhnm0fUbp/8Gav8MMdDAf
BgNVHSMEGDAWgBSOJvx6nGceOJmnos+7mv7pwTOjvzANBgkqhkiG9w0BAQUFAAOC
AQEAGrAxrupkSGomNjODZC2SB/LczYinKznNYLodlDaa0Ns1dkqgDef1kKf8xG8y
y0TEBrC46jgbD5ezQ6gDXFVFguO2ssXxRX8bugHHFl3PtVefar2H9MCE6zuY3qeJ
KVSkGxYq/p10vxrPwoDcSNd6YYHG9ihd+0DyTG358N3gT5x0YIGgZwayAweeM++A
AC4I5sQd+Eah0Czkhgm1DxsUxFQwQW20yfCFl6A0sWJioB/CLO7D+95ahbFu/Mod
ufRAm/v82jEvqIKu2QIKy3aTbDdlwziJWAP4l9VzWj8txdvliY554+C1/aoBM8+q
lQOfavn9X5i4OEFqROOKjnyYjA==
-----END CERTIFICATE-----
