Certificate:
    Data:
        Version: 3 (0x2)
        Serial Number: 7 (0x7)
        Signature Algorithm: sha256WithRSAEncryption
        Issuer: DC=org, DC=simple, O=Simple Inc, OU=Simple Signing CA, CN=Simple Signing CA
        Validity
            Not Before: Apr 19 10:13:40 2016 GMT
            Not After : Apr 19 10:13:40 2026 GMT
        Subject: DC=org, DC=simple, O=Simple Inc, OU=Simple Signing CA, CN=*.simple.org
        Subject Public Key Info:
            Public Key Algorithm: rsaEncryption
            RSA Public Key: (2048 bit)
                Modulus (2048 bit):
                    00:b5:3d:9e:69:1a:36:99:27:6a:47:c7:c3:3b:89:
                    b5:64:9c:4d:4b:fc:4e:c0:8f:a3:dd:5a:0c:32:03:
                    ae:48:42:d2:5f:6d:66:dd:5a:c0:9a:f2:0a:b2:78:
                    88:d1:5d:47:2c:e2:be:bd:17:78:fe:dc:2f:69:41:
                    4e:ee:84:ef:84:48:d9:11:d6:27:6a:64:2f:ba:33:
                    eb:e1:39:f3:22:95:5e:c6:0f:58:d8:b5:63:3e:d6:
                    06:72:d2:4f:ea:1d:5b:88:a0:11:ff:65:9b:21:c5:
                    54:e6:8b:5e:d7:2f:32:22:b7:c0:c8:67:64:31:a7:
                    85:10:7e:d0:9e:55:92:a8:f2:05:e3:e3:d1:c2:2a:
                    09:d2:14:dd:1f:85:c2:8b:60:38:08:71:c5:2f:85:
                    dd:b6:4f:3e:71:b5:99:88:36:4f:c9:d9:2f:1f:8d:
                    0a:8c:23:35:8d:16:f9:78:09:3f:cf:e1:c6:2f:88:
                    3d:3a:d2:d5:c7:62:a0:fe:69:26:00:c1:38:35:82:
                    de:5e:e2:fc:b6:4b:9c:d7:9f:e8:f9:87:bf:f3:28:
                    d3:1a:ae:6f:ad:4b:6b:62:b6:ac:cf:5e:e8:33:29:
                    97:7a:c1:f3:e0:19:0b:6c:70:2f:68:51:ac:73:fb:
                    77:42:93:b6:84:bc:de:f9:8a:32:4c:cd:15:51:3c:
                    2a:85
                Exponent: 65537 (0x10001)
        X509v3 extensions:
            X509v3 Key Usage: critical
                Digital Signature, Key Encipherment
            X509v3 Basic Constraints: 
                CA:FALSE
            X509v3 Extended Key Usage: 
                TLS Web Server Authentication, TLS Web Client Authentication
            X509v3 Subject Key Identifier: 
                F6:1B:7E:B2:33:31:D9:72:AE:2C:5C:5C:68:FF:1A:55:40:30:51:CA
            X509v3 Authority Key Identifier: 
                keyid:0A:81:26:A3:E1:C9:0E:86:79:B4:7D:46:E9:FF:C1:9A:BF:C3:0C:74

            X509v3 Subject Alternative Name: 
                DNS:*.simple.org
    Signature Algorithm: sha256WithRSAEncryption
        90:27:af:21:b0:dd:6f:9c:ed:a2:2a:0e:62:71:57:74:85:94:
        f0:70:fb:6b:21:52:56:d0:87:32:11:5f:f8:7c:36:1f:ea:35:
        d9:c4:aa:8d:7e:04:49:43:27:aa:38:87:74:a9:dc:9c:cb:13:
        fc:45:04:66:35:db:e3:28:b8:cf:08:67:6e:f9:2c:5c:40:fb:
        06:7f:11:24:f8:d2:2a:81:43:0e:15:1e:3a:6e:c2:24:cc:28:
        ff:3a:79:8a:89:c2:0f:21:6a:ee:a9:82:78:75:03:0d:d6:c2:
        d8:f7:01:3a:79:d1:66:5b:ac:86:a3:29:2a:2d:7f:6c:17:ba:
        d3:4c:a4:c1:e6:46:03:c0:5f:59:34:39:d5:81:c1:4c:bb:12:
        6d:d4:6b:2a:59:f2:5f:d6:7a:43:85:a8:93:af:f9:8b:83:31:
        e1:8c:cf:1e:9f:c6:6d:43:75:b5:7b:43:7e:cb:25:60:c6:1a:
        65:7c:fe:30:ee:b7:4c:22:74:58:c7:d2:4a:5f:06:a9:fc:e2:
        3b:c2:1a:1b:94:70:2a:f1:53:2d:aa:8c:2a:0e:9f:61:1c:61:
        f9:57:9f:54:eb:63:50:6f:0e:d8:aa:c0:7c:f7:1d:26:a5:51:
        9c:5b:c9:04:fe:f2:f4:24:9b:47:c0:8d:ee:44:44:e3:c7:d6:
        76:14:9b:34
-----BEGIN CERTIFICATE-----
MIIEATCCAumgAwIBAgIBBzANBgkqhkiG9w0BAQsFADB6MRMwEQYKCZImiZPyLGQB
GRYDb3JnMRYwFAYKCZImiZPyLGQBGRYGc2ltcGxlMRMwEQYDVQQKDApTaW1wbGUg
SW5jMRowGAYDVQQLDBFTaW1wbGUgU2lnbmluZyBDQTEaMBgGA1UEAwwRU2ltcGxl
IFNpZ25pbmcgQ0EwHhcNMTYwNDE5MTAxMzQwWhcNMjYwNDE5MTAxMzQwWjB1MRMw
EQYKCZImiZPyLGQBGRYDb3JnMRYwFAYKCZImiZPyLGQBGRYGc2ltcGxlMRMwEQYD
VQQKDApTaW1wbGUgSW5jMRowGAYDVQQLDBFTaW1wbGUgU2lnbmluZyBDQTEVMBMG
A1UEAwwMKi5zaW1wbGUub3JnMIIBIjANBgkqhkiG9w0BAQEFAAOCAQ8AMIIBCgKC
AQEAtT2eaRo2mSdqR8fDO4m1ZJxNS/xOwI+j3VoMMgOuSELSX21m3VrAmvIKsniI
0V1HLOK+vRd4/twvaUFO7oTvhEjZEdYnamQvujPr4TnzIpVexg9Y2LVjPtYGctJP
6h1biKAR/2WbIcVU5ote1y8yIrfAyGdkMaeFEH7QnlWSqPIF4+PRwioJ0hTdH4XC
i2A4CHHFL4Xdtk8+cbWZiDZPydkvH40KjCM1jRb5eAk/z+HGL4g9OtLVx2Kg/mkm
AME4NYLeXuL8tkuc15/o+Ye/8yjTGq5vrUtrYrasz17oMymXesHz4BkLbHAvaFGs
c/t3QpO2hLze+YoyTM0VUTwqhQIDAQABo4GWMIGTMA4GA1UdDwEB/wQEAwIFoDAJ
BgNVHRMEAjAAMB0GA1UdJQQWMBQGCCsGAQUFBwMBBggrBgEFBQcDAjAdBgNVHQ4E
FgQU9ht+sjMx2XKuLFxcaP8aVUAwUcowHwYDVR0jBBgwFoAUCoEmo+HJDoZ5tH1G
6f/Bmr/DDHQwFwYDVR0RBBAwDoIMKi5zaW1wbGUub3JnMA0GCSqGSIb3DQEBCwUA
A4IBAQCQJ68hsN1vnO2iKg5icVd0hZTwcPtrIVJW0IcyEV/4fDYf6jXZxKqNfgRJ
QyeqOId0qdycyxP8RQRmNdvjKLjPCGdu+SxcQPsGfxEk+NIqgUMOFR46bsIkzCj/
OnmKicIPIWruqYJ4dQMN1sLY9wE6edFmW6yGoykqLX9sF7rTTKTB5kYDwF9ZNDnV
gcFMuxJt1GsqWfJf1npDhaiTr/mLgzHhjM8en8ZtQ3W1e0N+yyVgxhplfP4w7rdM
InRYx9JKXwap/OI7whoblHAq8VMtqowqDp9hHGH5V59U62NQbw7YqsB89x0mpVGc
W8kE/vL0JJtHwI3uRETjx9Z2FJs0
-----END CERTIFICATE-----
