Certificate:
    Data:
        Version: 3 (0x2)
        Serial Number: 2 (0x2)
    Signature Algorithm: sha256WithRSAEncryption
        Issuer: DC=com, DC=example, O=Example Inc, OU=Example Signing CA, CN=Example Signing CA
        Validity
            Not Before: May 12 15:42:54 2018 GMT
            Not After : May 11 15:42:54 2028 GMT
        Subject: DC=com, DC=example, O=Example Inc, OU=Example Signing CA, CN=www.example.com
        Subject Public Key Info:
            Public Key Algorithm: rsaEncryption
                Public-Key: (2048 bit)
                Modulus:
                    00:de:d8:8d:8b:f1:68:6b:b3:de:3f:88:43:b8:0e:
                    d3:d7:51:81:31:fa:5c:49:2e:ca:b2:24:2e:52:c5:
                    e6:d8:71:a5:e1:86:1d:00:42:52:66:87:79:1e:2a:
                    ae:02:00:b3:c8:4c:9c:6e:44:59:54:42:3d:97:dd:
                    6a:d7:c5:c6:ba:93:3f:ae:44:55:99:d3:72:d6:35:
                    c5:a7:73:42:d5:78:6f:76:91:b0:2b:e1:ce:97:8b:
                    c8:15:30:9c:d6:bd:6b:2b:61:31:76:54:a6:7a:61:
                    ab:38:f6:40:76:9e:7d:41:0e:08:84:f6:96:41:98:
                    ae:1e:b5:73:bf:72:78:52:29:1c:dd:d5:69:e9:70:
                    ba:ca:71:6a:60:e0:a6:f0:4f:55:dd:08:83:91:7e:
                    36:e6:b3:42:03:a9:6f:01:b4:59:c1:6c:fb:f2:fb:
                    64:00:7a:6a:9c:59:cb:ed:70:46:9f:57:c5:46:56:
                    48:40:ff:4d:f2:a3:bb:bc:66:b3:91:fa:fe:c6:34:
                    c8:7f:aa:1f:dc:99:35:6a:f2:22:3e:6b:70:41:f9:
                    3b:c6:00:31:a8:89:2e:2f:b7:9b:66:60:6f:ac:37:
                    b1:15:ae:cd:30:41:73:02:fe:d8:dd:96:88:ad:4b:
                    36:f6:8b:20:d7:87:e5:ca:da:bc:f0:33:21:f7:5d:
                    d7:37
                Exponent: 65537 (0x10001)
        X509v3 extensions:
            X509v3 Key Usage: critical
                Digital Signature, Key Encipherment
            X509v3 Basic Constraints: 
                CA:FALSE
            X509v3 Extended Key Usage: 
                TLS Web Server Authentication, TLS Web Client Authentication
            X509v3 Subject Key Identifier: 
                EB:AF:57:27:07:94:09:6C:85:D9:EF:BA:B0:0A:55:48:3D:FB:D9:57
            X509v3 Authority Key Identifier: 
                keyid:8E:84:6B:9D:6C:94:31:05:23:50:25:F5:35:4E:4E:88:7D:9B:C7:36

            X509v3 Subject Alternative Name: 
                DNS:*.example.com, DNS:localhost, IP Address:127.0.0.1, IP Address:10.0.1.10
    Signature Algorithm: sha256WithRSAEncryption
         63:48:d5:1e:d9:ae:4e:1f:88:12:44:21:9d:0b:9c:ac:a0:81:
         ed:0f:24:00:ea:7b:b9:9e:fc:fd:16:55:15:01:03:8a:3a:d4:
         a5:35:64:d1:79:bc:93:92:89:a4:03:62:46:99:36:a5:d5:6b:
         f9:8f:cf:79:17:b4:60:97:40:3a:cf:9f:96:8f:08:d5:c0:97:
         43:2e:c2:37:44:de:c2:1f:90:44:0b:27:7f:f4:ff:d7:25:2a:
         bf:e6:2b:42:3e:4e:cf:7a:d3:fb:68:bf:7b:81:e7:11:5b:a8:
         69:6a:d7:48:41:49:f7:f5:0e:51:36:6b:8a:5b:45:e1:ce:56:
         a8:77:a8:db:86:f0:f8:0d:56:a0:18:97:01:c3:d4:0c:62:c9:
         e3:47:b4:96:96:58:34:6a:82:91:a7:18:40:ba:03:15:b6:44:
         57:7a:d4:46:8c:58:76:f1:e5:ac:29:3e:c0:a7:36:91:d1:1c:
         8c:29:a5:fa:6a:9b:20:71:d1:ad:24:39:a6:75:05:c2:02:68:
         df:fe:0f:36:d8:e0:ec:7b:b4:44:bc:46:a6:74:28:be:ed:b1:
         d2:d7:c7:8b:b5:57:0a:d9:e0:f1:5b:cf:06:f0:f3:e5:54:65:
         d5:45:6f:f6:68:95:a4:23:e3:4d:b7:5d:e8:83:d7:1a:ef:73:
         d6:82:55:0e
-----BEGIN CERTIFICATE-----
MIIEIzCCAwugAwIBAgIBAjANBgkqhkiG9w0BAQsFADB+MRMwEQYKCZImiZPyLGQB
GRYDY29tMRcwFQYKCZImiZPyLGQBGRYHZXhhbXBsZTEUMBIGA1UECgwLRXhhbXBs
ZSBJbmMxGzAZBgNVBAsMEkV4YW1wbGUgU2lnbmluZyBDQTEbMBkGA1UEAwwSRXhh
bXBsZSBTaWduaW5nIENBMB4XDTE4MDUxMjE1NDI1NFoXDTI4MDUxMTE1NDI1NFow
ezETMBEGCgmSJomT8ixkARkWA2NvbTEXMBUGCgmSJomT8ixkARkWB2V4YW1wbGUx
FDASBgNVBAoMC0V4YW1wbGUgSW5jMRswGQYDVQQLDBJFeGFtcGxlIFNpZ25pbmcg
Q0ExGDAWBgNVBAMMD3d3dy5leGFtcGxlLmNvbTCCASIwDQYJKoZIhvcNAQEBBQAD
ggEPADCCAQoCggEBAN7YjYvxaGuz3j+IQ7gO09dRgTH6XEkuyrIkLlLF5thxpeGG
HQBCUmaHeR4qrgIAs8hMnG5EWVRCPZfdatfFxrqTP65EVZnTctY1xadzQtV4b3aR
sCvhzpeLyBUwnNa9aythMXZUpnphqzj2QHaefUEOCIT2lkGYrh61c79yeFIpHN3V
aelwuspxamDgpvBPVd0Ig5F+NuazQgOpbwG0WcFs+/L7ZAB6apxZy+1wRp9XxUZW
SED/TfKju7xms5H6/sY0yH+qH9yZNWryIj5rcEH5O8YAMaiJLi+3m2Zgb6w3sRWu
zTBBcwL+2N2WiK1LNvaLINeH5cravPAzIfdd1zcCAwEAAaOBrjCBqzAOBgNVHQ8B
Af8EBAMCBaAwCQYDVR0TBAIwADAdBgNVHSUEFjAUBggrBgEFBQcDAQYIKwYBBQUH
AwIwHQYDVR0OBBYEFOuvVycHlAlshdnvurAKVUg9+9lXMB8GA1UdIwQYMBaAFI6E
a51slDEFI1Al9TVOToh9m8c2MC8GA1UdEQQoMCaCDSouZXhhbXBsZS5jb22CCWxv
Y2FsaG9zdIcEfwAAAYcECgABCjANBgkqhkiG9w0BAQsFAAOCAQEAY0jVHtmuTh+I
EkQhnQucrKCB7Q8kAOp7uZ78/RZVFQEDijrUpTVk0Xm8k5KJpANiRpk2pdVr+Y/P
eRe0YJdAOs+flo8I1cCXQy7CN0Tewh+QRAsnf/T/1yUqv+YrQj5Oz3rT+2i/e4Hn
EVuoaWrXSEFJ9/UOUTZriltF4c5WqHeo24bw+A1WoBiXAcPUDGLJ40e0lpZYNGqC
kacYQLoDFbZEV3rURoxYdvHlrCk+wKc2kdEcjCml+mqbIHHRrSQ5pnUFwgJo3/4P
Ntjg7Hu0RLxGpnQovu2x0tfHi7VXCtng8VvPBvDz5VRl1UVv9miVpCPjTbdd6IPX
Gu9z1oJVDg==
-----END CERTIFICATE-----
