Certificate:
    Data:
        Version: 3 (0x2)
        Serial Number: 6 (0x6)
    Signature Algorithm: sha256WithRSAEncryption
        Issuer: DC=com, DC=example, O=Example Inc, OU=Example Signing CA, CN=Example Signing CA
        Validity
            Not Before: Oct 23 14:14:03 2018 GMT
            Not After : Oct 22 14:14:03 2028 GMT
        Subject: DC=com, DC=example, O=Example Inc, OU=Example Signing CA, CN=seb.admin
        Subject Public Key Info:
            Public Key Algorithm: rsaEncryption
                Public-Key: (2048 bit)
                Modulus:
                    00:ab:61:69:ce:8b:7f:86:a0:42:ae:94:bc:a6:dd:
                    07:9e:a0:ac:0f:06:58:7d:ca:94:c0:14:32:e4:84:
                    b7:77:3b:37:e1:5d:80:48:4b:d7:dc:c9:cb:5b:8d:
                    89:75:08:a5:11:0b:8d:4c:9b:36:ac:38:db:03:0a:
                    38:79:82:38:1e:fb:fa:be:06:72:6d:c3:71:5a:ea:
                    b0:6a:4d:40:6c:00:42:ec:f4:c5:b4:46:81:20:22:
                    41:87:93:e7:15:ae:8e:f6:83:b7:9e:6b:3c:89:1e:
                    8f:61:05:ba:65:02:90:68:eb:c2:e4:74:27:d5:7c:
                    12:da:14:b9:d3:56:db:c3:87:ac:96:5b:e4:18:22:
                    c4:e4:7b:5c:27:ee:77:9f:ae:8c:c2:1c:88:5f:a1:
                    dc:30:1c:33:15:61:3c:1c:e4:56:26:29:d9:b0:cf:
                    25:c6:88:8f:2d:e6:75:4f:f0:a6:37:0e:30:f1:a7:
                    5d:04:97:27:61:d2:81:ab:23:6d:52:a6:e9:98:ee:
                    54:52:85:e3:53:60:aa:08:2c:86:c7:ce:af:ff:53:
                    2a:d7:ed:7e:26:90:69:2c:25:36:5f:41:fc:33:e4:
                    af:ca:f0:07:6b:5a:05:3d:66:31:22:9b:44:37:ad:
                    e7:63:3a:8a:49:ba:ec:48:39:60:45:9b:c4:ba:0a:
                    b5:85
                Exponent: 65537 (0x10001)
        X509v3 extensions:
            X509v3 Key Usage: critical
                Digital Signature, Key Encipherment
            X509v3 Basic Constraints: 
                CA:FALSE
            X509v3 Extended Key Usage: 
                TLS Web Server Authentication, TLS Web Client Authentication
            X509v3 Subject Key Identifier: 
                D3:07:F4:D5:2C:E9:0B:95:0E:F6:22:88:E3:18:FF:20:7E:8F:0C:E2
            X509v3 Authority Key Identifier: 
                keyid:8E:84:6B:9D:6C:94:31:05:23:50:25:F5:35:4E:4E:88:7D:9B:C7:36

            X509v3 Subject Alternative Name: 
                email:seb.admin@example.com
    Signature Algorithm: sha256WithRSAEncryption
         77:cf:e2:25:6f:a4:b5:f2:64:e4:65:9b:dd:40:0b:45:34:1d:
         32:90:d5:f6:4e:7b:59:02:09:77:12:87:a0:ed:50:db:4d:c2:
         d5:7a:0e:59:91:14:25:5b:1d:74:78:26:2b:6a:0b:62:a3:05:
         5a:e0:fb:e0:45:d6:ee:74:80:97:e0:9b:f2:b9:61:b1:00:9b:
         92:4b:c4:71:d6:7c:7f:03:d5:20:c5:df:a9:ab:fe:af:ef:f6:
         08:94:1f:24:38:e4:69:9a:dd:8f:22:3d:5e:74:f5:a8:fe:26:
         78:90:f2:45:b1:26:f0:fb:41:3b:a4:b3:32:89:0a:c7:e8:64:
         98:d6:79:63:77:27:fe:54:84:93:94:18:19:b8:1f:86:ac:af:
         ef:1e:0f:a0:ea:4d:a1:2b:84:a9:1f:19:81:98:90:0e:45:c0:
         84:7e:f3:d9:ee:ff:52:9b:bc:ca:9b:4b:c4:e9:f4:2c:11:90:
         0e:77:b4:f0:2a:2a:cc:25:6d:fe:ee:11:5d:e3:70:28:f3:73:
         7c:c4:62:a4:9f:2e:b5:67:9b:26:41:91:a2:b2:50:e8:52:3f:
         a8:5e:81:a5:0b:0a:6b:b4:4a:c1:a0:ae:f7:e9:86:6e:10:8f:
         ae:db:9f:8e:0c:09:ef:1d:0d:16:ff:5c:8b:32:21:e8:b1:1d:
         a7:90:e6:31
-----BEGIN CERTIFICATE-----
MIIEDjCCAvagAwIBAgIBBjANBgkqhkiG9w0BAQsFADB+MRMwEQYKCZImiZPyLGQB
GRYDY29tMRcwFQYKCZImiZPyLGQBGRYHZXhhbXBsZTEUMBIGA1UECgwLRXhhbXBs
ZSBJbmMxGzAZBgNVBAsMEkV4YW1wbGUgU2lnbmluZyBDQTEbMBkGA1UEAwwSRXhh
bXBsZSBTaWduaW5nIENBMB4XDTE4MTAyMzE0MTQwM1oXDTI4MTAyMjE0MTQwM1ow
dTETMBEGCgmSJomT8ixkARkWA2NvbTEXMBUGCgmSJomT8ixkARkWB2V4YW1wbGUx
FDASBgNVBAoMC0V4YW1wbGUgSW5jMRswGQYDVQQLDBJFeGFtcGxlIFNpZ25pbmcg
Q0ExEjAQBgNVBAMMCXNlYi5hZG1pbjCCASIwDQYJKoZIhvcNAQEBBQADggEPADCC
AQoCggEBAKthac6Lf4agQq6UvKbdB56grA8GWH3KlMAUMuSEt3c7N+FdgEhL19zJ
y1uNiXUIpRELjUybNqw42wMKOHmCOB77+r4Gcm3DcVrqsGpNQGwAQuz0xbRGgSAi
QYeT5xWujvaDt55rPIkej2EFumUCkGjrwuR0J9V8EtoUudNW28OHrJZb5BgixOR7
XCfud5+ujMIciF+h3DAcMxVhPBzkViYp2bDPJcaIjy3mdU/wpjcOMPGnXQSXJ2HS
gasjbVKm6ZjuVFKF41NgqggshsfOr/9TKtftfiaQaSwlNl9B/DPkr8rwB2taBT1m
MSKbRDet52M6ikm67Eg5YEWbxLoKtYUCAwEAAaOBnzCBnDAOBgNVHQ8BAf8EBAMC
BaAwCQYDVR0TBAIwADAdBgNVHSUEFjAUBggrBgEFBQcDAQYIKwYBBQUHAwIwHQYD
VR0OBBYEFNMH9NUs6QuVDvYiiOMY/yB+jwziMB8GA1UdIwQYMBaAFI6Ea51slDEF
I1Al9TVOToh9m8c2MCAGA1UdEQQZMBeBFXNlYi5hZG1pbkBleGFtcGxlLmNvbTAN
BgkqhkiG9w0BAQsFAAOCAQEAd8/iJW+ktfJk5GWb3UALRTQdMpDV9k57WQIJdxKH
oO1Q203C1XoOWZEUJVsddHgmK2oLYqMFWuD74EXW7nSAl+Cb8rlhsQCbkkvEcdZ8
fwPVIMXfqav+r+/2CJQfJDjkaZrdjyI9XnT1qP4meJDyRbEm8PtBO6SzMokKx+hk
mNZ5Y3cn/lSEk5QYGbgfhqyv7x4PoOpNoSuEqR8ZgZiQDkXAhH7z2e7/Upu8yptL
xOn0LBGQDne08CoqzCVt/u4RXeNwKPNzfMRipJ8utWebJkGRorJQ6FI/qF6BpQsK
a7RKwaCu9+mGbhCPrtufjgwJ7x0NFv9cizIh6LEdp5DmMQ==
-----END CERTIFICATE-----
