Certificate:
    Data:
        Version: 3 (0x2)
        Serial Number: 5 (0x5)
        Signature Algorithm: sha256WithRSAEncryption
        Issuer: DC=org, DC=simple, O=Simple Inc, OU=Simple Root CA, CN=Simple Root CA
        Validity
            Not Before: Aug 14 14:49:51 2016 GMT
            Not After : Aug 14 14:49:51 2026 GMT
        Subject: DC=org, DC=simple, O=Simple Inc, OU=Simple Root CA, CN=Simple Root CA
        Subject Public Key Info:
            Public Key Algorithm: rsaEncryption
            RSA Public Key: (2048 bit)
                Modulus (2048 bit):
                    00:a5:4a:aa:2c:44:4c:dd:7f:98:f1:20:43:47:84:
                    7c:4a:8f:32:3a:5d:83:ca:ee:6d:8c:74:d8:f0:f7:
                    20:75:fa:f6:f5:22:86:a9:04:4f:2c:3b:fa:f7:21:
                    a5:d1:e4:70:02:14:06:dd:82:8b:b2:8f:4b:19:e3:
                    6f:61:d4:8a:42:f7:15:cc:b4:bf:af:71:96:f6:9f:
                    2b:6f:50:a0:b9:dc:f2:97:a0:0d:78:02:1b:5a:2c:
                    59:08:5b:2a:86:6f:de:b6:b8:65:49:26:a6:04:91:
                    0f:46:1b:27:2c:87:03:a1:0a:7e:e7:d3:ad:d8:26:
                    14:c9:8f:57:28:9f:ea:c4:f0:15:bb:69:52:3f:30:
                    c7:c3:a5:61:4f:fe:2f:4a:5f:c1:7b:a7:01:9c:75:
                    9b:86:61:7c:44:98:af:c3:e3:8b:b6:d3:05:8c:40:
                    b2:80:f2:22:28:18:e6:c9:34:b0:3e:76:ec:92:c7:
                    59:03:42:17:6e:d6:6a:d6:f7:3d:9b:f2:8b:7e:72:
                    01:8f:02:08:dd:a4:92:ed:6a:62:c8:53:fc:bd:92:
                    e6:f6:7a:14:25:44:ba:7c:e4:17:66:a2:f7:44:06:
                    1e:5a:8d:2c:a5:08:0f:69:35:45:5d:90:38:0a:ed:
                    93:ad:24:e7:48:5b:a0:4f:3c:d8:f3:c6:b6:4c:01:
                    74:31
                Exponent: 65537 (0x10001)
        X509v3 extensions:
            X509v3 Key Usage: critical
                Certificate Sign, CRL Sign
            X509v3 Basic Constraints: critical
                CA:TRUE
            X509v3 Subject Key Identifier: 
                D0:FF:27:F3:9A:A3:7C:D3:4C:2E:8E:2A:77:3F:28:C3:AD:15:D1:B1
            X509v3 Authority Key Identifier: 
                keyid:D0:FF:27:F3:9A:A3:7C:D3:4C:2E:8E:2A:77:3F:28:C3:AD:15:D1:B1

    Signature Algorithm: sha256WithRSAEncryption
        2f:29:07:df:93:f3:4b:f5:14:c0:91:4b:0d:8b:46:79:97:a5:
        81:11:43:7a:d9:7b:ea:0c:9a:db:a4:82:99:5d:43:e4:e7:83:
        4a:47:7c:df:a4:20:b9:02:67:57:60:a8:1e:2b:dc:03:a4:27:
        79:db:84:81:fd:86:f3:20:23:ee:d9:1c:3e:3b:fd:e8:36:0f:
        0f:27:68:c9:8b:4a:1b:08:26:af:19:d7:da:bf:08:4a:bf:20:
        18:f8:2a:87:d3:43:6f:c0:d8:ce:7a:d7:90:18:ae:94:4f:5d:
        c3:6d:d8:d0:87:bc:58:0c:8c:78:e4:2f:28:45:d0:c1:8e:2e:
        f7:bb:e2:52:bf:da:a2:b9:bc:c9:c4:5d:7b:cd:9e:7d:54:ed:
        4c:eb:a8:f4:db:82:89:5c:02:f2:72:86:5b:5f:7a:29:24:0d:
        30:dd:06:18:e9:7d:7d:ad:d1:a7:59:02:5b:a7:f1:75:ab:c8:
        78:68:be:d3:3f:98:30:e3:93:81:e1:d1:a7:81:19:8d:05:45:
        4d:f4:88:82:1d:2f:47:dc:9d:71:08:14:bf:dd:52:3f:ab:15:
        4a:30:14:b0:5d:2a:c1:cc:b2:89:28:b1:9c:77:4d:52:48:a3:
        fb:c2:06:33:9a:9e:49:a2:bf:14:06:c3:01:cd:82:33:fd:61:
        fb:7d:94:53
-----BEGIN CERTIFICATE-----
MIIDxjCCAq6gAwIBAgIBBTANBgkqhkiG9w0BAQsFADB0MRMwEQYKCZImiZPyLGQB
GRYDb3JnMRYwFAYKCZImiZPyLGQBGRYGc2ltcGxlMRMwEQYDVQQKDApTaW1wbGUg
SW5jMRcwFQYDVQQLDA5TaW1wbGUgUm9vdCBDQTEXMBUGA1UEAwwOU2ltcGxlIFJv
b3QgQ0EwHhcNMTYwODE0MTQ0OTUxWhcNMjYwODE0MTQ0OTUxWjB0MRMwEQYKCZIm
iZPyLGQBGRYDb3JnMRYwFAYKCZImiZPyLGQBGRYGc2ltcGxlMRMwEQYDVQQKDApT
aW1wbGUgSW5jMRcwFQYDVQQLDA5TaW1wbGUgUm9vdCBDQTEXMBUGA1UEAwwOU2lt
cGxlIFJvb3QgQ0EwggEiMA0GCSqGSIb3DQEBAQUAA4IBDwAwggEKAoIBAQClSqos
REzdf5jxIENHhHxKjzI6XYPK7m2MdNjw9yB1+vb1IoapBE8sO/r3IaXR5HACFAbd
gouyj0sZ429h1IpC9xXMtL+vcZb2nytvUKC53PKXoA14AhtaLFkIWyqGb962uGVJ
JqYEkQ9GGycshwOhCn7n063YJhTJj1con+rE8BW7aVI/MMfDpWFP/i9KX8F7pwGc
dZuGYXxEmK/D44u20wWMQLKA8iIoGObJNLA+duySx1kDQhdu1mrW9z2b8ot+cgGP
AgjdpJLtamLIU/y9kub2ehQlRLp85BdmovdEBh5ajSylCA9pNUVdkDgK7ZOtJOdI
W6BPPNjzxrZMAXQxAgMBAAGjYzBhMA4GA1UdDwEB/wQEAwIBBjAPBgNVHRMBAf8E
BTADAQH/MB0GA1UdDgQWBBTQ/yfzmqN800wujip3PyjDrRXRsTAfBgNVHSMEGDAW
gBTQ/yfzmqN800wujip3PyjDrRXRsTANBgkqhkiG9w0BAQsFAAOCAQEALykH35Pz
S/UUwJFLDYtGeZelgRFDetl76gya26SCmV1D5OeDSkd836QguQJnV2CoHivcA6Qn
eduEgf2G8yAj7tkcPjv96DYPDydoyYtKGwgmrxnX2r8ISr8gGPgqh9NDb8DYznrX
kBiulE9dw23Y0Ie8WAyMeOQvKEXQwY4u97viUr/aorm8ycRde82efVTtTOuo9NuC
iVwC8nKGW196KSQNMN0GGOl9fa3Rp1kCW6fxdavIeGi+0z+YMOOTgeHRp4EZjQVF
TfSIgh0vR9ydcQgUv91SP6sVSjAUsF0qwcyyiSixnHdNUkij+8IGM5qeSaK/FAbD
Ac2CM/1h+32UUw==
-----END CERTIFICATE-----
