Certificate:
    Data:
        Version: 3 (0x2)
        Serial Number: 6 (0x6)
        Signature Algorithm: sha256WithRSAEncryption
        Issuer: DC=org, DC=simple, O=Simple Inc, OU=Simple Root CA, CN=Simple Root CA
        Validity
            Not Before: Aug 14 14:53:24 2016 GMT
            Not After : Aug 14 14:53:24 2026 GMT
        Subject: DC=org, DC=simple, O=Simple Inc, OU=Simple Signing CA, CN=Simple Signing CA
        Subject Public Key Info:
            Public Key Algorithm: rsaEncryption
            RSA Public Key: (2048 bit)
                Modulus (2048 bit):
                    00:df:df:d9:09:86:76:99:57:f1:94:d5:f5:7a:65:
                    f5:3d:33:cf:97:e3:ce:a7:95:22:13:42:3f:1d:f7:
                    f4:4a:94:42:24:76:94:3e:48:49:cb:b9:be:90:77:
                    86:95:b8:52:b3:d4:41:c3:63:14:d7:a5:7c:8d:0e:
                    bf:ec:9e:a8:35:56:87:ab:60:38:18:cb:a1:6c:07:
                    14:3c:2e:c8:3b:0a:33:87:59:2e:62:19:06:93:89:
                    e5:56:da:22:83:9b:2f:0e:58:7b:ac:89:74:fd:3f:
                    04:8c:96:2a:52:de:9d:ae:ed:2c:71:51:ae:e3:58:
                    a7:d5:c0:28:49:1f:0e:45:0f:4a:80:95:53:39:1d:
                    3d:12:ab:d1:bb:af:8e:4c:a3:b5:85:02:a9:27:26:
                    40:70:9c:8f:95:e8:ca:74:72:d5:35:96:a2:36:15:
                    46:9e:29:32:08:2a:2c:2b:93:12:5c:1e:e9:be:92:
                    c8:4d:b6:6e:94:a4:2f:7d:64:38:9c:b5:5b:1e:a0:
                    57:49:fd:96:fa:77:1d:be:b9:66:1b:b5:f2:b4:05:
                    3f:6c:f2:66:89:cf:f3:ff:1e:00:16:82:77:7e:be:
                    57:8b:1e:63:9f:c4:17:99:83:1c:a2:0d:49:cd:c6:
                    d0:8e:14:57:72:97:b0:fc:3d:f8:06:5f:00:14:0b:
                    e3:87
                Exponent: 65537 (0x10001)
        X509v3 extensions:
            X509v3 Key Usage: critical
                Certificate Sign, CRL Sign
            X509v3 Basic Constraints: critical
                CA:TRUE, pathlen:0
            X509v3 Subject Key Identifier: 
                54:92:5A:1A:46:49:0B:A7:B7:AD:9E:BC:BF:67:62:5B:0A:ED:00:30
            X509v3 Authority Key Identifier: 
                keyid:D0:FF:27:F3:9A:A3:7C:D3:4C:2E:8E:2A:77:3F:28:C3:AD:15:D1:B1

    Signature Algorithm: sha256WithRSAEncryption
        10:11:0a:38:d8:24:02:98:93:20:fd:da:3a:cb:5a:1d:ac:56:
        64:4b:23:7a:e3:61:b5:5b:70:70:39:60:51:42:0f:31:a8:8a:
        a3:30:02:f6:af:0e:5e:57:42:8c:bc:c4:1a:d8:63:4b:32:15:
        45:73:5c:77:de:1e:b2:37:cd:57:c1:06:f6:2b:17:dd:f2:5c:
        e5:da:81:f7:ca:ad:50:9a:4f:05:e6:91:04:14:45:bf:f2:02:
        9c:ec:f7:6c:6e:fd:2f:7d:cb:ef:9b:2b:46:73:d8:07:82:14:
        10:c7:ec:73:42:c4:09:d3:2d:3a:84:d7:9d:b3:d3:a7:15:bf:
        43:4d:a5:9c:7a:b4:96:52:f9:5e:7d:63:9f:15:b2:ca:99:53:
        2b:dd:2a:2a:d1:0a:06:64:a0:ab:d5:64:49:eb:41:4e:b5:68:
        e9:c0:32:4d:64:8b:ab:29:97:79:c1:7d:0b:b3:f3:74:c6:0e:
        57:d6:f9:42:30:70:61:12:db:62:66:0e:2a:a3:cc:04:e4:d1:
        96:32:cd:8b:57:59:51:a7:88:6b:74:62:9e:5c:3f:56:45:1e:
        99:78:56:59:aa:e4:61:a5:3c:6b:72:d6:36:d4:e5:26:ac:14:
        92:f2:dd:76:82:1a:88:56:9f:33:1c:e1:a9:34:8b:95:f1:eb:
        8b:0c:c4:68
-----BEGIN CERTIFICATE-----
MIIDzzCCAregAwIBAgIBBjANBgkqhkiG9w0BAQsFADB0MRMwEQYKCZImiZPyLGQB
GRYDb3JnMRYwFAYKCZImiZPyLGQBGRYGc2ltcGxlMRMwEQYDVQQKDApTaW1wbGUg
SW5jMRcwFQYDVQQLDA5TaW1wbGUgUm9vdCBDQTEXMBUGA1UEAwwOU2ltcGxlIFJv
b3QgQ0EwHhcNMTYwODE0MTQ1MzI0WhcNMjYwODE0MTQ1MzI0WjB6MRMwEQYKCZIm
iZPyLGQBGRYDb3JnMRYwFAYKCZImiZPyLGQBGRYGc2ltcGxlMRMwEQYDVQQKDApT
aW1wbGUgSW5jMRowGAYDVQQLDBFTaW1wbGUgU2lnbmluZyBDQTEaMBgGA1UEAwwR
U2ltcGxlIFNpZ25pbmcgQ0EwggEiMA0GCSqGSIb3DQEBAQUAA4IBDwAwggEKAoIB
AQDf39kJhnaZV/GU1fV6ZfU9M8+X486nlSITQj8d9/RKlEIkdpQ+SEnLub6Qd4aV
uFKz1EHDYxTXpXyNDr/snqg1VoerYDgYy6FsBxQ8Lsg7CjOHWS5iGQaTieVW2iKD
my8OWHusiXT9PwSMlipS3p2u7SxxUa7jWKfVwChJHw5FD0qAlVM5HT0Sq9G7r45M
o7WFAqknJkBwnI+V6Mp0ctU1lqI2FUaeKTIIKiwrkxJcHum+kshNtm6UpC99ZDic
tVseoFdJ/Zb6dx2+uWYbtfK0BT9s8maJz/P/HgAWgnd+vleLHmOfxBeZgxyiDUnN
xtCOFFdyl7D8PfgGXwAUC+OHAgMBAAGjZjBkMA4GA1UdDwEB/wQEAwIBBjASBgNV
HRMBAf8ECDAGAQH/AgEAMB0GA1UdDgQWBBRUkloaRkkLp7etnry/Z2JbCu0AMDAf
BgNVHSMEGDAWgBTQ/yfzmqN800wujip3PyjDrRXRsTANBgkqhkiG9w0BAQsFAAOC
AQEAEBEKONgkApiTIP3aOstaHaxWZEsjeuNhtVtwcDlgUUIPMaiKozAC9q8OXldC
jLzEGthjSzIVRXNcd94esjfNV8EG9isX3fJc5dqB98qtUJpPBeaRBBRFv/ICnOz3
bG79L33L75srRnPYB4IUEMfsc0LECdMtOoTXnbPTpxW/Q02lnHq0llL5Xn1jnxWy
yplTK90qKtEKBmSgq9VkSetBTrVo6cAyTWSLqymXecF9C7PzdMYOV9b5QjBwYRLb
YmYOKqPMBOTRljLNi1dZUaeIa3Rinlw/VkUemXhWWarkYaU8a3LWNtTlJqwUkvLd
doIaiFafMxzhqTSLlfHriwzEaA==
-----END CERTIFICATE-----
