Certificate:
    Data:
        Version: 3 (0x2)
        Serial Number: 1 (0x1)
    Signature Algorithm: sha256WithRSAEncryption
        Issuer: DC=com, DC=example, O=Example Inc, OU=Example Signing CA, CN=Example Signing CA
        Validity
            Not Before: May 12 15:39:17 2018 GMT
            Not After : May 11 15:39:17 2028 GMT
        Subject: DC=com, DC=example, O=Example Inc, OU=Example Signing CA, CN=www.example.com
        Subject Public Key Info:
            Public Key Algorithm: rsaEncryption
                Public-Key: (2048 bit)
                Modulus:
                    00:dc:74:e4:f4:35:ad:30:43:74:c4:cb:4b:01:a6:
                    dc:48:58:30:ad:36:c7:b5:ff:64:6c:78:7f:86:cd:
                    6f:4a:44:82:0a:e6:32:5c:da:82:f9:19:0d:3c:f6:
                    b4:0e:6a:4f:b5:7e:a0:c1:c7:6c:ea:79:6e:94:cf:
                    c4:d0:c7:7c:da:2c:b6:63:b6:83:c0:b7:ee:51:0d:
                    c6:b1:dd:ad:7c:7d:9d:da:45:bf:44:e1:e1:d3:9f:
                    20:3e:5e:5d:eb:f6:fd:d3:17:80:d0:e4:73:b5:64:
                    6b:12:c7:7d:18:75:b6:14:85:1b:94:01:16:ae:0b:
                    fe:f1:1a:dd:d7:22:6c:c1:94:ff:a1:5d:11:f2:ba:
                    58:e0:47:30:b3:3b:10:06:bf:60:9e:d9:80:a9:50:
                    6b:2e:45:b7:8c:04:6d:5a:c0:39:32:b7:d8:1f:39:
                    f3:d0:7a:e1:47:5c:b4:94:91:10:07:20:eb:e9:17:
                    1f:d3:d0:8a:a9:0b:c4:03:a3:f4:84:17:b3:da:09:
                    43:c6:5c:bf:43:fb:63:35:5f:81:54:af:6c:17:1e:
                    f6:7c:6c:08:75:e2:32:8b:28:b9:00:59:8b:a7:85:
                    6f:9c:1f:c0:3c:09:df:96:26:91:6f:bc:25:03:f9:
                    b0:90:eb:6d:9e:64:54:c2:9b:66:d6:22:86:8a:1e:
                    66:2d
                Exponent: 65537 (0x10001)
        X509v3 extensions:
            X509v3 Key Usage: critical
                Digital Signature, Key Encipherment
            X509v3 Basic Constraints: 
                CA:FALSE
            X509v3 Extended Key Usage: 
                TLS Web Server Authentication, TLS Web Client Authentication
            X509v3 Subject Key Identifier: 
                19:7F:44:6A:09:5F:F6:81:C2:EA:90:20:39:E7:CB:5F:DF:56:37:3D
            X509v3 Authority Key Identifier: 
                keyid:8E:84:6B:9D:6C:94:31:05:23:50:25:F5:35:4E:4E:88:7D:9B:C7:36

            X509v3 Subject Alternative Name: 
                DNS:*.example.com, DNS:localhost, IP Address:127.0.0.1, IP Address:10.0.1.10
    Signature Algorithm: sha256WithRSAEncryption
         12:47:c7:d6:75:cb:e0:a5:86:a9:4d:60:81:31:f3:89:2a:79:
         0c:1c:81:c9:cb:40:20:4d:03:cb:02:d8:ac:ad:c7:b7:01:ab:
         71:b5:f7:44:fb:f7:a5:e3:7a:48:44:68:42:86:71:33:47:5c:
         9f:91:df:bf:79:ed:9e:01:9a:87:b6:95:f8:7c:0c:00:6f:25:
         aa:d4:b1:39:17:68:e6:37:63:62:33:d9:26:9e:77:16:5a:cc:
         5e:f5:31:2f:f5:7f:46:f4:ea:bb:eb:3e:60:2c:e8:75:27:8a:
         07:6f:db:16:1c:a9:c9:c2:5a:4b:18:49:9e:2b:2f:d7:07:93:
         09:14:20:4b:25:14:14:27:b2:24:22:36:8e:25:ed:e0:4f:bd:
         b4:0f:6e:79:bf:09:12:f5:d4:f5:03:17:cf:89:8c:d7:87:21:
         dc:ec:55:f9:3d:9b:49:f5:22:f2:6b:11:d6:83:d4:7c:e9:75:
         ea:f1:3a:cd:5b:1d:f4:10:81:e1:74:47:9c:36:e5:a8:03:bd:
         e1:7c:f1:98:85:07:83:68:e0:a9:7f:3f:d7:bd:cf:0a:94:af:
         e3:20:87:f7:da:ef:53:59:71:d6:72:7f:81:dc:23:d9:83:01:
         f9:9f:5a:8f:f1:48:6e:2f:f2:a1:ff:bc:17:2f:7b:1d:92:b8:
         b6:2d:74:d4
-----BEGIN CERTIFICATE-----
MIIEIzCCAwugAwIBAgIBATANBgkqhkiG9w0BAQsFADB+MRMwEQYKCZImiZPyLGQB
GRYDY29tMRcwFQYKCZImiZPyLGQBGRYHZXhhbXBsZTEUMBIGA1UECgwLRXhhbXBs
ZSBJbmMxGzAZBgNVBAsMEkV4YW1wbGUgU2lnbmluZyBDQTEbMBkGA1UEAwwSRXhh
bXBsZSBTaWduaW5nIENBMB4XDTE4MDUxMjE1MzkxN1oXDTI4MDUxMTE1MzkxN1ow
ezETMBEGCgmSJomT8ixkARkWA2NvbTEXMBUGCgmSJomT8ixkARkWB2V4YW1wbGUx
FDASBgNVBAoMC0V4YW1wbGUgSW5jMRswGQYDVQQLDBJFeGFtcGxlIFNpZ25pbmcg
Q0ExGDAWBgNVBAMMD3d3dy5leGFtcGxlLmNvbTCCASIwDQYJKoZIhvcNAQEBBQAD
ggEPADCCAQoCggEBANx05PQ1rTBDdMTLSwGm3EhYMK02x7X/ZGx4f4bNb0pEggrm
MlzagvkZDTz2tA5qT7V+oMHHbOp5bpTPxNDHfNostmO2g8C37lENxrHdrXx9ndpF
v0Th4dOfID5eXev2/dMXgNDkc7VkaxLHfRh1thSFG5QBFq4L/vEa3dcibMGU/6Fd
EfK6WOBHMLM7EAa/YJ7ZgKlQay5Ft4wEbVrAOTK32B8589B64UdctJSREAcg6+kX
H9PQiqkLxAOj9IQXs9oJQ8Zcv0P7YzVfgVSvbBce9nxsCHXiMosouQBZi6eFb5wf
wDwJ35YmkW+8JQP5sJDrbZ5kVMKbZtYihooeZi0CAwEAAaOBrjCBqzAOBgNVHQ8B
Af8EBAMCBaAwCQYDVR0TBAIwADAdBgNVHSUEFjAUBggrBgEFBQcDAQYIKwYBBQUH
AwIwHQYDVR0OBBYEFBl/RGoJX/aBwuqQIDnny1/fVjc9MB8GA1UdIwQYMBaAFI6E
a51slDEFI1Al9TVOToh9m8c2MC8GA1UdEQQoMCaCDSouZXhhbXBsZS5jb22CCWxv
Y2FsaG9zdIcEfwAAAYcECgABCjANBgkqhkiG9w0BAQsFAAOCAQEAEkfH1nXL4KWG
qU1ggTHziSp5DByByctAIE0DywLYrK3HtwGrcbX3RPv3peN6SERoQoZxM0dcn5Hf
v3ntngGah7aV+HwMAG8lqtSxORdo5jdjYjPZJp53FlrMXvUxL/V/RvTqu+s+YCzo
dSeKB2/bFhypycJaSxhJnisv1weTCRQgSyUUFCeyJCI2jiXt4E+9tA9ueb8JEvXU
9QMXz4mM14ch3OxV+T2bSfUi8msR1oPUfOl16vE6zVsd9BCB4XRHnDblqAO94Xzx
mIUHg2jgqX8/173PCpSv4yCH99rvU1lx1nJ/gdwj2YMB+Z9aj/FIbi/yof+8Fy97
HZK4ti101A==
-----END CERTIFICATE-----
