Certificate:
    Data:
        Version: 3 (0x2)
        Serial Number: 1 (0x1)
        Signature Algorithm: sha1WithRSAEncryption
        Issuer: DC=org, DC=simple, O=Simple Inc, OU=Simple Signing CA, CN=Simple Signing CA
        Validity
            Not Before: Feb 25 12:46:32 2016 GMT
            Not After : Feb 24 12:46:32 2026 GMT
        Subject: DC=org, DC=simple, O=Simple Inc, OU=Simple Signing CA, CN=www.simple.org
        Subject Public Key Info:
            Public Key Algorithm: rsaEncryption
            RSA Public Key: (2048 bit)
                Modulus (2048 bit):
                    00:b0:82:7d:cb:c8:cf:54:31:4b:de:c1:70:27:d8:
                    9d:d6:85:9b:2b:1a:ad:91:95:fd:32:90:d9:6c:e6:
                    7b:08:cf:44:4e:89:a6:3f:05:11:c6:5b:5e:a2:8b:
                    f0:f0:60:6e:35:ed:57:77:b9:da:4c:d5:8a:5b:18:
                    4e:98:29:b7:b9:1d:77:e9:7e:21:27:f6:8a:5c:79:
                    5f:94:0e:40:56:67:e9:28:93:44:bf:1c:f7:ff:a7:
                    35:97:4f:c9:7d:72:9d:e9:3f:20:fc:10:18:7f:d9:
                    39:84:03:92:35:d9:d3:4a:8b:66:93:01:67:43:44:
                    e3:49:dd:a6:15:8c:c1:12:6b:6f:58:b2:e0:ee:61:
                    aa:dc:04:32:e3:0b:61:9c:45:77:dc:12:3c:96:91:
                    f2:77:df:e1:75:b0:9a:e4:85:06:96:2f:3e:f6:99:
                    f6:c5:d4:cf:89:e8:1a:6b:ce:45:b3:5f:b2:7b:7c:
                    32:c1:c5:74:60:47:13:cc:e6:e2:db:63:b6:6e:3e:
                    57:f7:49:ae:d0:d1:8e:b5:8f:45:24:5f:66:07:56:
                    84:53:a5:8b:86:01:7d:41:9d:4b:20:29:46:81:41:
                    19:7a:ab:8c:69:9b:6a:66:c3:61:3a:af:bd:a6:bc:
                    54:90:2c:54:5b:6c:c6:c1:3e:a3:ae:f5:83:c5:59:
                    fe:a7
                Exponent: 65537 (0x10001)
        X509v3 extensions:
            X509v3 Key Usage: critical
                Digital Signature, Key Encipherment
            X509v3 Basic Constraints: 
                CA:FALSE
            X509v3 Extended Key Usage: 
                TLS Web Server Authentication, TLS Web Client Authentication
            X509v3 Subject Key Identifier: 
                B8:60:EF:F5:17:23:C8:31:2B:41:9D:A3:EC:DD:0A:14:B0:47:15:8D
            X509v3 Authority Key Identifier: 
                keyid:91:B1:E7:E0:AF:93:9B:12:8D:42:FE:3B:07:CB:14:D6:F9:FF:8F:B1

            X509v3 Subject Alternative Name: 
                DNS:copy:commonName
    Signature Algorithm: sha1WithRSAEncryption
        9c:e2:8b:f8:3d:7c:e5:80:f9:b2:c0:34:c8:8f:99:56:ab:27:
        ff:fa:56:d5:65:a8:a9:93:b0:60:9e:c2:c9:cb:93:75:1c:8d:
        2f:1d:be:63:91:22:d9:00:35:99:31:96:1f:28:f8:eb:6d:e4:
        c5:a6:05:b8:e5:5d:23:ef:ae:ec:f3:44:94:24:0c:01:24:f4:
        02:d2:e6:3a:28:4d:c4:a6:1a:b0:56:e0:bf:15:90:17:a9:d7:
        9f:9d:0c:30:e9:62:3e:f0:27:4e:ca:02:be:85:8c:18:2a:e1:
        44:65:4d:cd:34:c1:aa:5c:37:24:81:28:45:58:c4:92:a9:04:
        c6:ea:23:0e:d1:5f:55:ce:66:d0:a8:ee:9b:36:94:fd:ed:84:
        d9:d9:7e:59:ef:43:34:b5:f2:7c:55:a3:91:36:40:3d:af:7c:
        f1:3a:b4:26:b4:0c:1f:3f:9f:38:99:ac:b9:4b:5d:ea:21:49:
        09:f2:66:aa:2f:5e:ad:4e:c8:ba:94:ae:6f:d3:46:da:07:9f:
        7e:0a:67:19:a2:5f:3e:86:9d:57:74:e9:98:e6:a0:c3:d8:65:
        93:3f:f7:ef:3f:40:df:58:8f:eb:33:c8:bf:8d:74:5f:c4:7d:
        b8:bc:be:11:73:4d:ea:81:8c:a8:f4:45:bf:02:de:e3:c7:d5:
        ac:c7:f4:bd
-----BEGIN CERTIFICATE-----
MIIEBjCCAu6gAwIBAgIBATANBgkqhkiG9w0BAQUFADB6MRMwEQYKCZImiZPyLGQB
GRYDb3JnMRYwFAYKCZImiZPyLGQBGRYGc2ltcGxlMRMwEQYDVQQKDApTaW1wbGUg
SW5jMRowGAYDVQQLDBFTaW1wbGUgU2lnbmluZyBDQTEaMBgGA1UEAwwRU2ltcGxl
IFNpZ25pbmcgQ0EwHhcNMTYwMjI1MTI0NjMyWhcNMjYwMjI0MTI0NjMyWjB3MRMw
EQYKCZImiZPyLGQBGRYDb3JnMRYwFAYKCZImiZPyLGQBGRYGc2ltcGxlMRMwEQYD
VQQKDApTaW1wbGUgSW5jMRowGAYDVQQLDBFTaW1wbGUgU2lnbmluZyBDQTEXMBUG
A1UEAwwOd3d3LnNpbXBsZS5vcmcwggEiMA0GCSqGSIb3DQEBAQUAA4IBDwAwggEK
AoIBAQCwgn3LyM9UMUvewXAn2J3WhZsrGq2Rlf0ykNls5nsIz0ROiaY/BRHGW16i
i/DwYG417Vd3udpM1YpbGE6YKbe5HXfpfiEn9opceV+UDkBWZ+kok0S/HPf/pzWX
T8l9cp3pPyD8EBh/2TmEA5I12dNKi2aTAWdDRONJ3aYVjMESa29YsuDuYarcBDLj
C2GcRXfcEjyWkfJ33+F1sJrkhQaWLz72mfbF1M+J6BprzkWzX7J7fDLBxXRgRxPM
5uLbY7ZuPlf3Sa7Q0Y61j0UkX2YHVoRTpYuGAX1BnUsgKUaBQRl6q4xpm2pmw2E6
r72mvFSQLFRbbMbBPqOu9YPFWf6nAgMBAAGjgZkwgZYwDgYDVR0PAQH/BAQDAgWg
MAkGA1UdEwQCMAAwHQYDVR0lBBYwFAYIKwYBBQUHAwEGCCsGAQUFBwMCMB0GA1Ud
DgQWBBS4YO/1FyPIMStBnaPs3QoUsEcVjTAfBgNVHSMEGDAWgBSRsefgr5ObEo1C
/jsHyxTW+f+PsTAaBgNVHREEEzARgg9jb3B5OmNvbW1vbk5hbWUwDQYJKoZIhvcN
AQEFBQADggEBAJzii/g9fOWA+bLANMiPmVarJ//6VtVlqKmTsGCewsnLk3UcjS8d
vmORItkANZkxlh8o+Ott5MWmBbjlXSPvruzzRJQkDAEk9ALS5jooTcSmGrBW4L8V
kBep15+dDDDpYj7wJ07KAr6FjBgq4URlTc00wapcNySBKEVYxJKpBMbqIw7RX1XO
ZtCo7ps2lP3thNnZflnvQzS18nxVo5E2QD2vfPE6tCa0DB8/nziZrLlLXeohSQny
ZqovXq1OyLqUrm/TRtoHn34KZxmiXz6GnVd06ZjmoMPYZZM/9+8/QN9Yj+szyL+N
dF/Efbi8vhFzTeqBjKj0Rb8C3uPH1azH9L0=
-----END CERTIFICATE-----
