Certificate:
    Data:
        Version: 3 (0x2)
        Serial Number: 3 (0x3)
    Signature Algorithm: sha256WithRSAEncryption
        Issuer: DC=com, DC=example, O=Example Inc, OU=Example Signing CA, CN=Example Signing CA
        Validity
            Not Before: Oct 23 13:54:35 2018 GMT
            Not After : Oct 22 13:54:35 2028 GMT
        Subject: DC=com, DC=example, O=Example Inc, OU=Example Signing CA, CN=seb.client
        Subject Public Key Info:
            Public Key Algorithm: rsaEncryption
                Public-Key: (2048 bit)
                Modulus:
                    00:c3:5a:ae:56:a0:41:c3:3b:f7:7a:80:b2:11:c3:
                    2a:db:0b:1f:6d:30:f0:44:a0:d5:0d:15:e2:54:aa:
                    85:ae:f7:37:33:a1:db:0e:ec:1a:b4:45:d9:16:8e:
                    fe:a8:d7:9d:b2:f7:18:d3:a6:68:f3:8b:c8:54:d6:
                    e5:f0:6b:8f:5a:db:d6:fc:1c:26:5b:d4:0f:4c:29:
                    22:e6:c8:07:33:e1:25:1a:c9:a9:5b:ef:f1:49:bb:
                    bd:e5:fb:7d:e6:76:1f:96:32:e8:dc:e9:ec:64:6b:
                    80:bd:1f:1c:b2:0d:1b:2e:c6:63:ce:16:d2:86:9f:
                    8f:e2:de:22:1a:fc:a6:ab:49:22:9c:32:35:f9:39:
                    6c:f9:45:69:77:9a:d9:50:5b:81:c7:66:78:3e:49:
                    ec:96:9f:51:28:29:ff:a5:08:bb:bd:03:fd:41:37:
                    08:8d:45:3d:d3:20:59:d6:c4:b3:0b:8c:36:7d:5b:
                    8c:6d:ac:8e:ba:49:32:23:f4:3e:a5:71:2b:78:8e:
                    35:55:f7:40:3f:15:8d:5a:71:55:e6:d7:8e:b4:c4:
                    0e:a8:db:0c:0d:3b:50:00:fa:63:0d:8d:3e:42:dd:
                    cb:5a:b8:f8:f0:ab:27:08:8c:85:76:23:8a:09:8e:
                    d4:60:b7:10:01:78:5d:f8:05:78:b6:3c:0f:93:50:
                    a7:11
                Exponent: 65537 (0x10001)
        X509v3 extensions:
            X509v3 Key Usage: critical
                Digital Signature, Key Encipherment
            X509v3 Basic Constraints: 
                CA:FALSE
            X509v3 Extended Key Usage: 
                TLS Web Server Authentication, TLS Web Client Authentication
            X509v3 Subject Key Identifier: 
                5C:5C:0B:D7:5F:B0:BE:99:CD:AA:F2:18:45:A5:C9:8B:80:8D:CB:41
            X509v3 Authority Key Identifier: 
                keyid:8E:84:6B:9D:6C:94:31:05:23:50:25:F5:35:4E:4E:88:7D:9B:C7:36

            X509v3 Subject Alternative Name: 
                email:seb.client@example.com
    Signature Algorithm: sha256WithRSAEncryption
         18:37:91:4a:f7:48:93:82:2a:42:33:b4:45:51:4b:1a:93:63:
         f9:f2:c6:3c:4e:b1:67:ab:bf:19:4c:47:98:46:0e:04:b5:f1:
         2b:f4:2f:62:4d:37:22:9d:80:4c:50:73:2c:b8:13:0b:96:0f:
         3d:68:bd:86:26:4d:b5:17:3a:30:78:43:25:30:62:8c:20:b4:
         f1:e3:35:03:f1:1d:a3:e3:a4:96:0a:1c:a1:14:df:11:16:95:
         36:19:9a:e9:a0:a7:9e:56:90:39:29:47:bc:12:b5:aa:96:9f:
         74:b4:07:f1:7d:75:09:84:13:f3:6a:32:1e:c1:3e:13:0e:55:
         43:78:fa:5e:cd:3b:25:ae:5e:a6:aa:d3:fe:06:f6:60:8b:4b:
         21:e9:16:65:18:85:ac:e2:34:72:31:22:b6:ae:f3:3a:b1:71:
         10:f7:10:11:9f:52:78:6d:41:3c:d2:1f:56:19:99:af:5c:87:
         13:10:99:3e:af:8f:47:45:b5:f9:4d:41:b0:21:63:37:e3:cd:
         ae:c1:a3:79:6c:09:8c:1f:92:e2:37:f0:36:8a:3a:9f:75:7b:
         e5:dd:ad:ee:d4:ce:bd:33:86:e9:eb:26:c5:75:1a:56:3b:84:
         b3:e3:86:b9:33:d3:1f:8f:88:fa:28:a9:72:ed:b2:61:c2:56:
         26:3a:ae:6e
-----BEGIN CERTIFICATE-----
MIIEEDCCAvigAwIBAgIBAzANBgkqhkiG9w0BAQsFADB+MRMwEQYKCZImiZPyLGQB
GRYDY29tMRcwFQYKCZImiZPyLGQBGRYHZXhhbXBsZTEUMBIGA1UECgwLRXhhbXBs
ZSBJbmMxGzAZBgNVBAsMEkV4YW1wbGUgU2lnbmluZyBDQTEbMBkGA1UEAwwSRXhh
bXBsZSBTaWduaW5nIENBMB4XDTE4MTAyMzEzNTQzNVoXDTI4MTAyMjEzNTQzNVow
djETMBEGCgmSJomT8ixkARkWA2NvbTEXMBUGCgmSJomT8ixkARkWB2V4YW1wbGUx
FDASBgNVBAoMC0V4YW1wbGUgSW5jMRswGQYDVQQLDBJFeGFtcGxlIFNpZ25pbmcg
Q0ExEzARBgNVBAMMCnNlYi5jbGllbnQwggEiMA0GCSqGSIb3DQEBAQUAA4IBDwAw
ggEKAoIBAQDDWq5WoEHDO/d6gLIRwyrbCx9tMPBEoNUNFeJUqoWu9zczodsO7Bq0
RdkWjv6o152y9xjTpmjzi8hU1uXwa49a29b8HCZb1A9MKSLmyAcz4SUayalb7/FJ
u73l+33mdh+WMujc6exka4C9HxyyDRsuxmPOFtKGn4/i3iIa/KarSSKcMjX5OWz5
RWl3mtlQW4HHZng+SeyWn1EoKf+lCLu9A/1BNwiNRT3TIFnWxLMLjDZ9W4xtrI66
STIj9D6lcSt4jjVV90A/FY1acVXm1460xA6o2wwNO1AA+mMNjT5C3ctauPjwqycI
jIV2I4oJjtRgtxABeF34BXi2PA+TUKcRAgMBAAGjgaAwgZ0wDgYDVR0PAQH/BAQD
AgWgMAkGA1UdEwQCMAAwHQYDVR0lBBYwFAYIKwYBBQUHAwEGCCsGAQUFBwMCMB0G
A1UdDgQWBBRcXAvXX7C+mc2q8hhFpcmLgI3LQTAfBgNVHSMEGDAWgBSOhGudbJQx
BSNQJfU1Tk6IfZvHNjAhBgNVHREEGjAYgRZzZWIuY2xpZW50QGV4YW1wbGUuY29t
MA0GCSqGSIb3DQEBCwUAA4IBAQAYN5FK90iTgipCM7RFUUsak2P58sY8TrFnq78Z
TEeYRg4EtfEr9C9iTTcinYBMUHMsuBMLlg89aL2GJk21FzoweEMlMGKMILTx4zUD
8R2j46SWChyhFN8RFpU2GZrpoKeeVpA5KUe8ErWqlp90tAfxfXUJhBPzajIewT4T
DlVDePpezTslrl6mqtP+BvZgi0sh6RZlGIWs4jRyMSK2rvM6sXEQ9xARn1J4bUE8
0h9WGZmvXIcTEJk+r49HRbX5TUGwIWM3482uwaN5bAmMH5LiN/A2ijqfdXvl3a3u
1M69M4bp6ybFdRpWO4Sz44a5M9Mfj4j6KKly7bJhwlYmOq5u
-----END CERTIFICATE-----
