Certificate:
    Data:
        Version: 3 (0x2)
        Serial Number: 3 (0x3)
        Signature Algorithm: sha1WithRSAEncryption
        Issuer: DC=org, DC=simple, O=Simple Inc, OU=Simple Signing CA, CN=Simple Signing CA
        Validity
            Not Before: Feb 25 13:42:38 2016 GMT
            Not After : Feb 24 13:42:38 2026 GMT
        Subject: DC=org, DC=simple, O=Simple Inc, OU=Simple Signing CA, CN=seb.client
        Subject Public Key Info:
            Public Key Algorithm: rsaEncryption
            RSA Public Key: (2048 bit)
                Modulus (2048 bit):
                    00:d1:ef:26:4f:99:86:f3:f5:19:25:ed:83:1a:ac:
                    d7:b3:c4:2d:e3:e0:67:72:52:ad:9d:cb:de:0e:2d:
                    8d:c1:52:af:7c:07:7f:ae:0c:f0:fa:47:d4:37:7c:
                    6c:e6:6e:55:1c:5a:6d:55:7c:47:cf:55:05:88:af:
                    1e:6e:51:95:d0:26:13:ca:c3:54:f2:90:42:4f:ff:
                    94:89:ed:27:21:4d:ec:39:2b:c7:56:6b:0d:ff:9a:
                    41:cf:65:6b:17:14:07:cb:3a:66:07:20:3a:e6:e0:
                    4a:1d:54:fc:fa:cf:62:ff:4c:d5:a4:47:21:04:86:
                    cf:88:1a:8f:b3:af:ec:92:f1:dc:a4:54:83:d9:57:
                    81:2f:74:55:39:1d:83:27:5a:59:c1:54:3d:cc:34:
                    3a:65:8a:3d:d2:97:b0:8f:6a:b7:e0:4e:7c:2e:7e:
                    d6:df:30:02:b5:ad:4d:0f:b2:f7:06:ce:03:10:94:
                    93:41:c6:5b:30:2a:99:93:38:38:3e:18:1c:05:2a:
                    a8:61:5f:f2:d4:19:b7:bd:90:a0:dc:4c:f7:f4:0a:
                    78:60:d7:4f:11:25:22:1f:4f:73:d9:07:f6:29:f0:
                    2c:7c:47:e5:ee:5a:93:38:81:72:72:6e:90:fd:b2:
                    61:ed:bc:f7:65:cb:20:18:b0:fb:19:2b:34:fe:eb:
                    5f:d7
                Exponent: 65537 (0x10001)
        X509v3 extensions:
            X509v3 Key Usage: critical
                Digital Signature, Key Encipherment
            X509v3 Basic Constraints: 
                CA:FALSE
            X509v3 Extended Key Usage: 
                TLS Web Server Authentication, TLS Web Client Authentication
            X509v3 Subject Key Identifier: 
                18:71:91:62:B0:12:AD:B9:0E:BF:76:75:05:43:E5:C7:32:7D:F8:86
            X509v3 Authority Key Identifier: 
                keyid:91:B1:E7:E0:AF:93:9B:12:8D:42:FE:3B:07:CB:14:D6:F9:FF:8F:B1

            X509v3 Subject Alternative Name: 
                email:seb.client@simple.org
    Signature Algorithm: sha1WithRSAEncryption
        8c:1d:29:17:8d:f3:e7:8c:53:73:58:7f:0a:cb:21:5d:5d:e0:
        69:7c:8e:e5:af:92:7b:55:b1:07:34:ae:a6:cd:3a:b6:74:e1:
        7f:24:e7:b7:36:84:30:4f:0b:9e:a5:02:23:a4:bd:5c:19:e4:
        b6:bc:55:97:87:0c:8e:e6:bc:97:1e:ef:74:3b:07:1b:a9:09:
        35:1d:f6:64:06:19:c8:11:0e:c0:65:45:ad:a3:e5:81:af:fb:
        41:6f:02:45:c2:ef:51:1e:17:b2:8a:4d:d8:df:c2:24:d4:e2:
        89:e7:40:8d:db:0d:4d:bc:e0:bc:11:e7:f4:34:22:ea:ee:82:
        65:08:73:ed:71:49:37:1e:aa:cf:fe:1d:17:7e:d6:69:c1:c6:
        84:bc:20:33:b6:47:6e:a8:ed:3b:2e:00:b8:ee:78:5c:4c:01:
        9b:4a:10:82:4e:ca:4f:29:d4:b8:5c:97:5f:70:c6:3d:c4:72:
        68:a2:54:f7:1e:1e:8a:b1:99:2e:e0:5c:00:f3:70:94:3f:13:
        bd:f8:e3:aa:bf:d4:b5:cf:b4:c5:f7:6d:92:ca:21:a8:dd:f1:
        ac:de:4f:28:20:95:84:43:51:5f:d1:98:ff:90:ed:30:b1:76:
        fa:a7:ae:1a:e7:b9:58:9c:b1:1d:47:20:be:6e:e4:8a:07:f1:
        1a:c8:1a:fa
-----BEGIN CERTIFICATE-----
MIIECDCCAvCgAwIBAgIBAzANBgkqhkiG9w0BAQUFADB6MRMwEQYKCZImiZPyLGQB
GRYDb3JnMRYwFAYKCZImiZPyLGQBGRYGc2ltcGxlMRMwEQYDVQQKDApTaW1wbGUg
SW5jMRowGAYDVQQLDBFTaW1wbGUgU2lnbmluZyBDQTEaMBgGA1UEAwwRU2ltcGxl
IFNpZ25pbmcgQ0EwHhcNMTYwMjI1MTM0MjM4WhcNMjYwMjI0MTM0MjM4WjBzMRMw
EQYKCZImiZPyLGQBGRYDb3JnMRYwFAYKCZImiZPyLGQBGRYGc2ltcGxlMRMwEQYD
VQQKDApTaW1wbGUgSW5jMRowGAYDVQQLDBFTaW1wbGUgU2lnbmluZyBDQTETMBEG
A1UEAwwKc2ViLmNsaWVudDCCASIwDQYJKoZIhvcNAQEBBQADggEPADCCAQoCggEB
ANHvJk+ZhvP1GSXtgxqs17PELePgZ3JSrZ3L3g4tjcFSr3wHf64M8PpH1Dd8bOZu
VRxabVV8R89VBYivHm5RldAmE8rDVPKQQk//lIntJyFN7Dkrx1ZrDf+aQc9laxcU
B8s6ZgcgOubgSh1U/PrPYv9M1aRHIQSGz4gaj7Ov7JLx3KRUg9lXgS90VTkdgyda
WcFUPcw0OmWKPdKXsI9qt+BOfC5+1t8wArWtTQ+y9wbOAxCUk0HGWzAqmZM4OD4Y
HAUqqGFf8tQZt72QoNxM9/QKeGDXTxElIh9Pc9kH9inwLHxH5e5akziBcnJukP2y
Ye2892XLIBiw+xkrNP7rX9cCAwEAAaOBnzCBnDAOBgNVHQ8BAf8EBAMCBaAwCQYD
VR0TBAIwADAdBgNVHSUEFjAUBggrBgEFBQcDAQYIKwYBBQUHAwIwHQYDVR0OBBYE
FBhxkWKwEq25Dr92dQVD5ccyffiGMB8GA1UdIwQYMBaAFJGx5+Cvk5sSjUL+OwfL
FNb5/4+xMCAGA1UdEQQZMBeBFXNlYi5jbGllbnRAc2ltcGxlLm9yZzANBgkqhkiG
9w0BAQUFAAOCAQEAjB0pF43z54xTc1h/CsshXV3gaXyO5a+Se1WxBzSups06tnTh
fyTntzaEME8LnqUCI6S9XBnktrxVl4cMjua8lx7vdDsHG6kJNR32ZAYZyBEOwGVF
raPlga/7QW8CRcLvUR4XsopN2N/CJNTiiedAjdsNTbzgvBHn9DQi6u6CZQhz7XFJ
Nx6qz/4dF37WacHGhLwgM7ZHbqjtOy4AuO54XEwBm0oQgk7KTynUuFyXX3DGPcRy
aKJU9x4eirGZLuBcAPNwlD8Tvfjjqr/Utc+0xfdtksohqN3xrN5PKCCVhENRX9GY
/5DtMLF2+qeuGue5WJyxHUcgvm7kigfxGsga+g==
-----END CERTIFICATE-----
