Certificate:
    Data:
        Version: 3 (0x2)
        Serial Number: 4 (0x4)
    Signature Algorithm: sha256WithRSAEncryption
        Issuer: DC=com, DC=example, O=Example Inc, OU=Example Signing CA, CN=Example Signing CA
        Validity
            Not Before: Oct 23 14:02:01 2018 GMT
            Not After : Oct 22 14:02:01 2028 GMT
        Subject: DC=com, DC=example, O=Example Inc, OU=Example Signing CA, CN=seb.admin
        Subject Public Key Info:
            Public Key Algorithm: rsaEncryption
                Public-Key: (2048 bit)
                Modulus:
                    00:a7:b9:e8:0b:e9:a0:b4:99:ba:64:a0:22:f7:21:
                    cd:92:99:c5:19:27:2c:c5:44:58:9a:8a:cd:0d:50:
                    f5:1c:f1:76:d0:e9:de:4d:80:8d:63:70:d0:65:43:
                    52:c3:b0:90:c1:9a:95:a4:b6:17:78:91:64:7c:c0:
                    26:99:ea:9f:ff:7e:4c:34:4a:e4:46:df:7a:db:0f:
                    ba:1b:06:f8:5b:67:6d:f9:a2:db:0d:9d:74:6d:27:
                    7b:39:14:53:b2:3a:22:0f:72:d6:56:9f:96:2b:ed:
                    7e:48:4d:e5:6a:dd:87:ad:1f:26:a3:2e:57:09:86:
                    83:86:fd:83:d5:e3:a6:26:c7:60:9f:fb:a8:fd:4f:
                    05:dd:e9:87:5d:cb:4e:26:52:c1:7e:1d:4f:81:4f:
                    c7:45:26:62:57:86:c5:6c:9d:5d:69:c6:62:81:c9:
                    0c:64:04:d5:70:05:a1:13:4c:49:a5:91:76:e5:a3:
                    5c:6a:61:2c:a0:54:66:71:ec:0e:02:28:ea:f8:09:
                    9a:8f:c5:26:4b:02:a7:6a:3f:c4:72:7d:95:6b:58:
                    b2:99:45:c0:19:95:9e:9e:1f:00:26:4e:18:e7:e2:
                    37:b3:1f:92:ed:3b:63:65:40:1d:d2:91:0c:5e:53:
                    d9:4d:80:50:0f:d2:98:4a:50:a8:ab:29:ff:ec:60:
                    75:ef
                Exponent: 65537 (0x10001)
        X509v3 extensions:
            X509v3 Key Usage: critical
                Digital Signature, Key Encipherment
            X509v3 Basic Constraints: 
                CA:FALSE
            X509v3 Extended Key Usage: 
                TLS Web Server Authentication, TLS Web Client Authentication
            X509v3 Subject Key Identifier: 
                61:B8:89:79:2E:DB:65:74:B2:E8:FF:FB:2B:AC:54:10:AF:9F:40:35
            X509v3 Authority Key Identifier: 
                keyid:8E:84:6B:9D:6C:94:31:05:23:50:25:F5:35:4E:4E:88:7D:9B:C7:36

            X509v3 Subject Alternative Name: 
                email:seb.admin@example.com
    Signature Algorithm: sha256WithRSAEncryption
         6d:8e:d2:da:ea:4f:6d:a9:00:73:83:87:b0:09:73:36:e0:2b:
         f1:4e:5e:d3:64:e8:f1:fa:a7:3f:38:94:4c:9f:ad:8c:61:da:
         83:74:b0:ec:17:ee:82:f2:26:c0:c8:87:ca:60:3d:85:9f:eb:
         aa:b4:24:ca:64:3f:75:a6:97:4f:04:e1:92:4e:f7:51:e3:99:
         f5:87:96:39:1a:55:3c:b4:85:bc:ed:9d:f0:e0:73:1c:6b:cf:
         7c:5d:71:bb:37:26:4b:59:9a:8f:14:f5:40:1f:31:71:06:8d:
         48:2a:bd:8d:60:48:b9:82:e0:22:d1:50:3f:81:84:41:1a:c0:
         f9:cc:7e:38:5d:54:29:e2:43:d7:07:b7:64:0b:50:e5:05:a3:
         13:0a:9b:9a:f7:2c:a8:2d:a3:0a:26:c2:a1:3a:1a:71:c0:6a:
         a6:d9:eb:88:a3:58:b2:c8:81:af:d0:44:53:b4:63:1e:78:38:
         f1:9c:58:e5:3d:5e:47:e8:80:02:9c:55:29:fd:b1:37:b0:ea:
         f6:a5:8c:d9:03:d3:de:75:ef:82:81:ee:e8:e2:63:f8:f9:f0:
         a1:da:4b:6d:c6:20:49:23:53:09:93:54:1a:08:aa:b2:2d:ca:
         02:07:f1:2c:e9:6e:d7:d5:ac:94:7c:a3:e0:2e:d1:b4:44:09:
         d6:6f:e5:7e
-----BEGIN CERTIFICATE-----
MIIEDjCCAvagAwIBAgIBBDANBgkqhkiG9w0BAQsFADB+MRMwEQYKCZImiZPyLGQB
GRYDY29tMRcwFQYKCZImiZPyLGQBGRYHZXhhbXBsZTEUMBIGA1UECgwLRXhhbXBs
ZSBJbmMxGzAZBgNVBAsMEkV4YW1wbGUgU2lnbmluZyBDQTEbMBkGA1UEAwwSRXhh
bXBsZSBTaWduaW5nIENBMB4XDTE4MTAyMzE0MDIwMVoXDTI4MTAyMjE0MDIwMVow
dTETMBEGCgmSJomT8ixkARkWA2NvbTEXMBUGCgmSJomT8ixkARkWB2V4YW1wbGUx
FDASBgNVBAoMC0V4YW1wbGUgSW5jMRswGQYDVQQLDBJFeGFtcGxlIFNpZ25pbmcg
Q0ExEjAQBgNVBAMMCXNlYi5hZG1pbjCCASIwDQYJKoZIhvcNAQEBBQADggEPADCC
AQoCggEBAKe56AvpoLSZumSgIvchzZKZxRknLMVEWJqKzQ1Q9RzxdtDp3k2AjWNw
0GVDUsOwkMGalaS2F3iRZHzAJpnqn/9+TDRK5EbfetsPuhsG+Ftnbfmi2w2ddG0n
ezkUU7I6Ig9y1laflivtfkhN5Wrdh60fJqMuVwmGg4b9g9XjpibHYJ/7qP1PBd3p
h13LTiZSwX4dT4FPx0UmYleGxWydXWnGYoHJDGQE1XAFoRNMSaWRduWjXGphLKBU
ZnHsDgIo6vgJmo/FJksCp2o/xHJ9lWtYsplFwBmVnp4fACZOGOfiN7Mfku07Y2VA
HdKRDF5T2U2AUA/SmEpQqKsp/+xgde8CAwEAAaOBnzCBnDAOBgNVHQ8BAf8EBAMC
BaAwCQYDVR0TBAIwADAdBgNVHSUEFjAUBggrBgEFBQcDAQYIKwYBBQUHAwIwHQYD
VR0OBBYEFGG4iXku22V0suj/+yusVBCvn0A1MB8GA1UdIwQYMBaAFI6Ea51slDEF
I1Al9TVOToh9m8c2MCAGA1UdEQQZMBeBFXNlYi5hZG1pbkBleGFtcGxlLmNvbTAN
BgkqhkiG9w0BAQsFAAOCAQEAbY7S2upPbakAc4OHsAlzNuAr8U5e02To8fqnPziU
TJ+tjGHag3Sw7BfugvImwMiHymA9hZ/rqrQkymQ/daaXTwThkk73UeOZ9YeWORpV
PLSFvO2d8OBzHGvPfF1xuzcmS1majxT1QB8xcQaNSCq9jWBIuYLgItFQP4GEQRrA
+cx+OF1UKeJD1we3ZAtQ5QWjEwqbmvcsqC2jCibCoToaccBqptnriKNYssiBr9BE
U7RjHng48ZxY5T1eR+iAApxVKf2xN7Dq9qWM2QPT3nXvgoHu6OJj+PnwodpLbcYg
SSNTCZNUGgiqsi3KAgfxLOlu19WslHyj4C7RtEQJ1m/lfg==
-----END CERTIFICATE-----
