Certificate:
    Data:
        Version: 3 (0x2)
        Serial Number: 5 (0x5)
        Signature Algorithm: sha1WithRSAEncryption
        Issuer: DC=org, DC=simple, O=Simple Inc, OU=Simple Signing CA, CN=Simple Signing CA
        Validity
            Not Before: Feb 25 19:33:21 2016 GMT
            Not After : Feb 24 19:33:21 2026 GMT
        Subject: DC=org, DC=simple, O=Simple Inc, OU=Simple Signing CA, CN=seb.admin
        Subject Public Key Info:
            Public Key Algorithm: rsaEncryption
            RSA Public Key: (2048 bit)
                Modulus (2048 bit):
                    00:b9:49:37:65:94:47:4f:a0:52:d0:9e:ea:59:b6:
                    7d:9c:ac:6b:80:26:d3:9b:ec:77:10:8c:2d:6d:5f:
                    25:ad:8c:67:6d:e3:bb:2b:66:64:9b:10:0e:44:15:
                    6d:a8:db:cf:d5:3d:13:27:9e:f3:25:a8:8c:6b:4c:
                    2a:c0:c1:30:a2:99:ea:e5:73:e4:dd:c2:22:4b:1e:
                    14:87:79:4d:ec:4e:c1:01:16:20:f4:fb:51:bb:a9:
                    06:87:a0:e8:c4:68:19:2f:62:8c:38:df:e8:1b:cf:
                    3e:e3:23:d0:18:87:de:47:d9:f7:bc:3b:cd:36:eb:
                    a0:9a:53:24:19:5d:f9:84:a5:9b:b2:d3:8e:57:eb:
                    82:30:c0:05:d5:9d:57:7d:6b:30:2a:2a:4d:a4:aa:
                    68:db:ff:81:e4:c0:e1:c3:c9:5d:01:da:30:37:57:
                    92:34:7d:99:3b:e9:e7:84:02:4a:db:b7:79:4d:a9:
                    7a:d2:3b:19:14:e4:db:41:d5:e5:38:b8:40:0a:95:
                    61:97:cf:37:73:87:6e:9a:75:0b:e4:85:10:25:0c:
                    f3:96:da:be:11:20:c3:80:c6:b7:d8:24:ec:c2:44:
                    25:6c:5a:13:90:0a:ff:96:10:41:92:8a:1b:f3:2f:
                    2b:3a:e3:d1:09:51:44:4f:55:8d:cb:ca:92:7a:54:
                    e9:6f
                Exponent: 65537 (0x10001)
        X509v3 extensions:
            X509v3 Key Usage: critical
                Digital Signature, Key Encipherment
            X509v3 Basic Constraints: 
                CA:FALSE
            X509v3 Extended Key Usage: 
                TLS Web Server Authentication, TLS Web Client Authentication
            X509v3 Subject Key Identifier: 
                09:06:B0:F0:AC:93:33:A6:E1:DC:96:AE:41:0B:B1:3E:66:D5:F6:5B
            X509v3 Authority Key Identifier: 
                keyid:91:B1:E7:E0:AF:93:9B:12:8D:42:FE:3B:07:CB:14:D6:F9:FF:8F:B1

            X509v3 Subject Alternative Name: 
                email:seb.admin@simple.org
    Signature Algorithm: sha1WithRSAEncryption
        15:b2:15:d8:76:36:5a:fc:be:33:c6:b9:16:ad:39:3b:6b:56:
        22:8e:ee:a6:72:5f:37:a4:94:2c:78:b9:d1:d9:0f:d3:c5:96:
        45:93:1b:e0:8c:3d:94:58:70:7e:51:bc:b1:5a:49:45:ed:93:
        4b:96:f4:0a:03:c9:a6:ae:86:8f:60:bd:02:26:1d:bb:9d:bc:
        77:0b:7a:c7:55:e8:62:80:6b:f2:3e:5b:70:2f:75:cb:a6:c0:
        7c:38:1a:a3:a9:f2:b3:a6:b1:08:84:73:54:3a:52:91:29:ce:
        f3:8f:4f:4e:1e:a2:2c:e4:93:f3:3f:e9:af:c6:a9:e8:5c:b6:
        e4:0b:9b:57:75:61:6a:a4:ad:ef:e7:91:2d:83:dc:35:d1:22:
        ba:28:c9:8b:ae:ad:78:03:99:df:2a:3b:43:c4:6c:b6:1d:65:
        70:82:44:29:09:7b:1b:21:2e:4d:c3:bc:e4:3c:73:74:65:7c:
        30:73:d3:5f:2e:ee:3f:a7:fc:2a:75:88:ad:ca:d0:06:61:2e:
        91:2c:15:20:42:73:f1:cc:0b:e2:c1:6f:d2:a1:e4:6f:96:c6:
        56:cd:30:e5:ab:ed:a2:1e:95:f0:ca:55:c1:74:3f:57:d5:20:
        9e:b8:66:14:2a:c4:b1:80:8c:41:fc:7d:67:ef:2e:fe:18:46:
        10:a8:9b:5b
-----BEGIN CERTIFICATE-----
MIIEBjCCAu6gAwIBAgIBBTANBgkqhkiG9w0BAQUFADB6MRMwEQYKCZImiZPyLGQB
GRYDb3JnMRYwFAYKCZImiZPyLGQBGRYGc2ltcGxlMRMwEQYDVQQKDApTaW1wbGUg
SW5jMRowGAYDVQQLDBFTaW1wbGUgU2lnbmluZyBDQTEaMBgGA1UEAwwRU2ltcGxl
IFNpZ25pbmcgQ0EwHhcNMTYwMjI1MTkzMzIxWhcNMjYwMjI0MTkzMzIxWjByMRMw
EQYKCZImiZPyLGQBGRYDb3JnMRYwFAYKCZImiZPyLGQBGRYGc2ltcGxlMRMwEQYD
VQQKDApTaW1wbGUgSW5jMRowGAYDVQQLDBFTaW1wbGUgU2lnbmluZyBDQTESMBAG
A1UEAwwJc2ViLmFkbWluMIIBIjANBgkqhkiG9w0BAQEFAAOCAQ8AMIIBCgKCAQEA
uUk3ZZRHT6BS0J7qWbZ9nKxrgCbTm+x3EIwtbV8lrYxnbeO7K2ZkmxAORBVtqNvP
1T0TJ57zJaiMa0wqwMEwopnq5XPk3cIiSx4Uh3lN7E7BARYg9PtRu6kGh6DoxGgZ
L2KMON/oG88+4yPQGIfeR9n3vDvNNuugmlMkGV35hKWbstOOV+uCMMAF1Z1XfWsw
KipNpKpo2/+B5MDhw8ldAdowN1eSNH2ZO+nnhAJK27d5Tal60jsZFOTbQdXlOLhA
CpVhl883c4dumnUL5IUQJQzzltq+ESDDgMa32CTswkQlbFoTkAr/lhBBkoob8y8r
OuPRCVFET1WNy8qSelTpbwIDAQABo4GeMIGbMA4GA1UdDwEB/wQEAwIFoDAJBgNV
HRMEAjAAMB0GA1UdJQQWMBQGCCsGAQUFBwMBBggrBgEFBQcDAjAdBgNVHQ4EFgQU
CQaw8KyTM6bh3JauQQuxPmbV9lswHwYDVR0jBBgwFoAUkbHn4K+TmxKNQv47B8sU
1vn/j7EwHwYDVR0RBBgwFoEUc2ViLmFkbWluQHNpbXBsZS5vcmcwDQYJKoZIhvcN
AQEFBQADggEBABWyFdh2Nlr8vjPGuRatOTtrViKO7qZyXzeklCx4udHZD9PFlkWT
G+CMPZRYcH5RvLFaSUXtk0uW9AoDyaauho9gvQImHbudvHcLesdV6GKAa/I+W3Av
dcumwHw4GqOp8rOmsQiEc1Q6UpEpzvOPT04eoizkk/M/6a/GqehctuQLm1d1YWqk
re/nkS2D3DXRIrooyYuurXgDmd8qO0PEbLYdZXCCRCkJexshLk3DvOQ8c3RlfDBz
018u7j+n/Cp1iK3K0AZhLpEsFSBCc/HMC+LBb9Kh5G+WxlbNMOWr7aIelfDKVcF0
P1fVIJ64ZhQqxLGAjEH8fWfvLv4YRhCom1s=
-----END CERTIFICATE-----
