Certificate:
    Data:
        Version: 3 (0x2)
        Serial Number: 5 (0x5)
    Signature Algorithm: sha256WithRSAEncryption
        Issuer: DC=com, DC=example, O=Example Inc, OU=Example Signing CA, CN=Example Signing CA
        Validity
            Not Before: Oct 23 14:04:06 2018 GMT
            Not After : Oct 22 14:04:06 2028 GMT
        Subject: DC=com, DC=example, O=Example Inc, OU=Example Signing CA, CN=seb.admin
        Subject Public Key Info:
            Public Key Algorithm: rsaEncryption
                Public-Key: (2048 bit)
                Modulus:
                    00:ec:94:f5:df:f2:e2:3d:81:5a:ed:7e:74:d7:c7:
                    dc:5b:9b:4a:43:89:7c:c9:cc:8a:b2:8f:17:e6:40:
                    64:32:5d:6d:d1:7b:63:f2:16:d6:2a:41:67:c8:d7:
                    81:30:5a:ba:08:a9:03:66:21:14:a4:f1:05:60:8c:
                    a7:ef:e5:4a:5a:f3:60:58:82:8c:5e:54:af:56:14:
                    ad:7f:cc:f1:04:59:85:7a:5c:6c:95:a1:f1:57:e1:
                    29:b1:59:f9:b1:28:2d:c8:c9:a5:63:46:75:a9:31:
                    85:0e:c6:11:18:7a:2c:c0:91:3b:3f:04:9e:92:d7:
                    86:b6:07:99:c2:b5:e8:ed:17:43:87:e4:e2:76:f3:
                    ff:ad:4b:2a:7f:ba:c7:40:36:78:70:2e:dc:8a:a0:
                    2e:9e:c2:eb:03:11:d3:04:6e:fd:64:a7:09:b2:f6:
                    f4:e6:00:b4:69:c9:42:bf:af:0b:04:b5:da:6c:b5:
                    c5:be:c3:7b:26:a0:88:fd:bf:6c:53:89:af:26:9e:
                    d4:f3:2f:50:cd:25:fb:2b:39:7d:0e:6a:68:9d:19:
                    d1:64:5f:f4:86:ef:27:7b:7b:6b:b5:e1:74:0d:bb:
                    52:e8:69:7a:fd:07:e3:40:21:d3:4c:e0:6a:2d:73:
                    a6:79:fe:04:94:7e:67:a1:25:b0:d6:3f:44:f1:d8:
                    5f:c1
                Exponent: 65537 (0x10001)
        X509v3 extensions:
            X509v3 Key Usage: critical
                Digital Signature, Key Encipherment
            X509v3 Basic Constraints: 
                CA:FALSE
            X509v3 Extended Key Usage: 
                TLS Web Server Authentication, TLS Web Client Authentication
            X509v3 Subject Key Identifier: 
                04:9E:B2:1C:AC:8C:08:C3:B3:2E:D2:5F:95:95:FF:FB:A7:6F:07:2D
            X509v3 Authority Key Identifier: 
                keyid:8E:84:6B:9D:6C:94:31:05:23:50:25:F5:35:4E:4E:88:7D:9B:C7:36

            X509v3 Subject Alternative Name: 
                email:seb.admin@example.com
    Signature Algorithm: sha256WithRSAEncryption
         4f:31:fe:04:2e:5f:b6:f1:cd:5e:29:34:65:53:8f:37:1c:ae:
         28:3f:e9:4b:34:f3:16:d9:99:0d:d7:ee:7f:b1:a4:c7:af:28:
         50:fb:fe:01:12:b0:69:1a:5a:1b:96:12:ac:0f:87:f1:f8:5c:
         9f:0a:c0:06:a2:04:72:6c:7f:9a:9c:2b:57:66:c4:cf:13:20:
         d1:4a:8f:32:44:27:22:cf:b2:ad:a9:55:c0:20:ae:9c:2e:4c:
         4d:e1:9c:71:26:b3:df:41:30:2b:84:f1:68:40:2a:90:00:90:
         e3:ce:0e:44:d5:57:a3:20:6e:33:2b:80:0e:35:ea:7f:89:75:
         af:84:11:16:4c:1d:44:e7:27:db:6f:eb:ba:d9:a2:a8:33:c5:
         73:af:b1:0e:6d:00:df:70:5a:a3:f2:93:d1:4d:bb:4e:2f:da:
         38:48:28:ba:14:80:d2:0d:25:a8:b1:6e:56:1e:73:43:6b:61:
         1c:75:e8:e5:7e:6c:06:c0:64:a2:3d:f9:59:cb:9a:0c:43:7d:
         b0:20:0e:18:ae:0c:ab:6e:86:1d:18:f4:90:37:4e:bb:99:98:
         16:bf:dc:c6:9a:b2:09:a7:39:64:2a:87:54:9b:28:c4:1c:fd:
         1e:71:95:80:30:80:85:5e:42:8d:79:35:c1:d3:66:3c:e1:ac:
         8f:df:b4:7a
-----BEGIN CERTIFICATE-----
MIIEDjCCAvagAwIBAgIBBTANBgkqhkiG9w0BAQsFADB+MRMwEQYKCZImiZPyLGQB
GRYDY29tMRcwFQYKCZImiZPyLGQBGRYHZXhhbXBsZTEUMBIGA1UECgwLRXhhbXBs
ZSBJbmMxGzAZBgNVBAsMEkV4YW1wbGUgU2lnbmluZyBDQTEbMBkGA1UEAwwSRXhh
bXBsZSBTaWduaW5nIENBMB4XDTE4MTAyMzE0MDQwNloXDTI4MTAyMjE0MDQwNlow
dTETMBEGCgmSJomT8ixkARkWA2NvbTEXMBUGCgmSJomT8ixkARkWB2V4YW1wbGUx
FDASBgNVBAoMC0V4YW1wbGUgSW5jMRswGQYDVQQLDBJFeGFtcGxlIFNpZ25pbmcg
Q0ExEjAQBgNVBAMMCXNlYi5hZG1pbjCCASIwDQYJKoZIhvcNAQEBBQADggEPADCC
AQoCggEBAOyU9d/y4j2BWu1+dNfH3FubSkOJfMnMirKPF+ZAZDJdbdF7Y/IW1ipB
Z8jXgTBaugipA2YhFKTxBWCMp+/lSlrzYFiCjF5Ur1YUrX/M8QRZhXpcbJWh8Vfh
KbFZ+bEoLcjJpWNGdakxhQ7GERh6LMCROz8EnpLXhrYHmcK16O0XQ4fk4nbz/61L
Kn+6x0A2eHAu3IqgLp7C6wMR0wRu/WSnCbL29OYAtGnJQr+vCwS12my1xb7Deyag
iP2/bFOJryae1PMvUM0l+ys5fQ5qaJ0Z0WRf9IbvJ3t7a7XhdA27Uuhpev0H40Ah
00zgai1zpnn+BJR+Z6ElsNY/RPHYX8ECAwEAAaOBnzCBnDAOBgNVHQ8BAf8EBAMC
BaAwCQYDVR0TBAIwADAdBgNVHSUEFjAUBggrBgEFBQcDAQYIKwYBBQUHAwIwHQYD
VR0OBBYEFASeshysjAjDsy7SX5WV//unbwctMB8GA1UdIwQYMBaAFI6Ea51slDEF
I1Al9TVOToh9m8c2MCAGA1UdEQQZMBeBFXNlYi5hZG1pbkBleGFtcGxlLmNvbTAN
BgkqhkiG9w0BAQsFAAOCAQEATzH+BC5ftvHNXik0ZVOPNxyuKD/pSzTzFtmZDdfu
f7Gkx68oUPv+ARKwaRpaG5YSrA+H8fhcnwrABqIEcmx/mpwrV2bEzxMg0UqPMkQn
Is+yralVwCCunC5MTeGccSaz30EwK4TxaEAqkACQ484ORNVXoyBuMyuADjXqf4l1
r4QRFkwdROcn22/rutmiqDPFc6+xDm0A33Bao/KT0U27Ti/aOEgouhSA0g0lqLFu
Vh5zQ2thHHXo5X5sBsBkoj35WcuaDEN9sCAOGK4Mq26GHRj0kDdOu5mYFr/cxpqy
Cac5ZCqHVJsoxBz9HnGVgDCAhV5CjXk1wdNmPOGsj9+0eg==
-----END CERTIFICATE-----
