Certificate:
    Data:
        Version: 3 (0x2)
        Serial Number: 6 (0x6)
        Signature Algorithm: sha1WithRSAEncryption
        Issuer: DC=org, DC=simple, O=Simple Inc, OU=Simple Signing CA, CN=Simple Signing CA
        Validity
            Not Before: Feb 27 18:43:29 2016 GMT
            Not After : Feb 26 18:43:29 2026 GMT
        Subject: DC=org, DC=simple, O=Simple Inc, OU=Simple Signing CA, CN=seb.client
        Subject Public Key Info:
            Public Key Algorithm: rsaEncryption
            RSA Public Key: (2048 bit)
                Modulus (2048 bit):
                    00:d8:80:3b:b3:d0:44:27:56:a6:d0:0c:0a:84:2f:
                    fc:98:9e:8c:d4:65:f9:1b:67:43:2b:64:86:07:f8:
                    90:40:65:b8:20:c8:a2:23:ca:e4:ac:f3:63:ff:ba:
                    f5:91:fb:13:5c:87:1d:86:fd:9c:ef:b6:3b:83:6a:
                    62:24:20:0c:6e:34:9f:fe:59:09:0a:71:d7:84:39:
                    c7:d4:1e:0e:6e:0c:2b:88:39:c6:ba:f6:ae:61:ce:
                    ed:f8:4a:09:95:ad:f2:9b:ec:6e:ad:63:39:2c:fe:
                    ba:58:2b:04:99:2e:9d:8e:c9:94:96:97:68:e5:0a:
                    4b:39:b8:44:cd:e8:d0:05:c8:aa:bb:06:8c:0e:28:
                    dc:2b:2f:6a:de:25:6e:e2:ad:49:8e:0d:ef:0e:3e:
                    4d:5b:79:d5:40:8f:59:78:24:cb:2b:99:e1:a0:da:
                    92:fb:27:51:60:86:d1:14:39:e1:7b:75:b6:7b:fb:
                    e0:0e:26:b7:4d:ad:25:17:4f:29:23:04:f5:1d:e6:
                    65:37:3d:ef:d4:2f:59:a6:59:64:08:48:92:6a:0f:
                    a5:14:bb:f1:0c:87:5a:1c:7b:2d:10:a3:d4:83:56:
                    ae:16:6a:fc:00:0c:41:e9:ed:bc:f4:ec:75:51:6c:
                    8c:6b:6e:ce:39:dc:d1:eb:89:57:30:28:e3:2a:3a:
                    92:79
                Exponent: 65537 (0x10001)
        X509v3 extensions:
            X509v3 Key Usage: critical
                Digital Signature, Key Encipherment
            X509v3 Basic Constraints: 
                CA:FALSE
            X509v3 Extended Key Usage: 
                TLS Web Server Authentication, TLS Web Client Authentication
            X509v3 Subject Key Identifier: 
                8A:36:72:54:8D:08:3B:5D:E3:F9:A0:5E:B0:E6:7B:9B:5F:EB:01:23
            X509v3 Authority Key Identifier: 
                keyid:91:B1:E7:E0:AF:93:9B:12:8D:42:FE:3B:07:CB:14:D6:F9:FF:8F:B1

            X509v3 Subject Alternative Name: 
                email:seb.client@simple.org
    Signature Algorithm: sha1WithRSAEncryption
        88:25:3c:69:82:bb:e3:8d:da:f0:ee:11:23:58:09:a8:0d:31:
        77:63:00:fc:50:39:1b:c0:c2:8d:cb:e7:46:6d:cb:37:7c:42:
        26:40:51:6d:d1:c3:0e:8b:73:fd:ea:6a:c8:1c:5b:6e:53:75:
        fc:1c:3a:21:32:71:f0:99:5b:ea:03:53:56:46:15:1f:39:b5:
        9c:82:42:9b:e9:e3:35:a1:a4:26:97:a1:39:eb:26:3e:e9:82:
        5b:85:be:2e:7e:b7:b2:aa:db:0d:98:9a:92:fe:17:d2:18:ce:
        a2:f6:44:14:5d:76:1d:35:c6:75:26:be:5b:b0:d6:4d:be:e7:
        c2:13:53:19:97:f1:5c:9e:3c:67:19:17:bb:7b:7d:d3:cb:93:
        a6:91:89:f1:ed:fe:32:f0:03:ef:db:26:04:dd:96:48:2d:b7:
        15:f1:12:f8:cc:18:8a:38:5c:57:5a:a9:60:dd:0a:8f:c3:ba:
        ff:01:16:55:72:4f:fe:8c:b3:8e:77:82:33:36:4a:33:7c:05:
        c9:e2:a7:87:9c:93:1f:74:01:19:43:78:e3:48:93:5a:0d:7f:
        d5:7d:34:2f:18:ff:4b:5a:d6:ec:4b:94:4b:0b:b4:24:ff:fc:
        fa:e4:e9:f2:fa:fb:64:6e:19:46:11:8a:1e:41:c4:a8:61:fe:
        f2:02:99:9a
-----BEGIN CERTIFICATE-----
MIIECDCCAvCgAwIBAgIBBjANBgkqhkiG9w0BAQUFADB6MRMwEQYKCZImiZPyLGQB
GRYDb3JnMRYwFAYKCZImiZPyLGQBGRYGc2ltcGxlMRMwEQYDVQQKDApTaW1wbGUg
SW5jMRowGAYDVQQLDBFTaW1wbGUgU2lnbmluZyBDQTEaMBgGA1UEAwwRU2ltcGxl
IFNpZ25pbmcgQ0EwHhcNMTYwMjI3MTg0MzI5WhcNMjYwMjI2MTg0MzI5WjBzMRMw
EQYKCZImiZPyLGQBGRYDb3JnMRYwFAYKCZImiZPyLGQBGRYGc2ltcGxlMRMwEQYD
VQQKDApTaW1wbGUgSW5jMRowGAYDVQQLDBFTaW1wbGUgU2lnbmluZyBDQTETMBEG
A1UEAwwKc2ViLmNsaWVudDCCASIwDQYJKoZIhvcNAQEBBQADggEPADCCAQoCggEB
ANiAO7PQRCdWptAMCoQv/JiejNRl+RtnQytkhgf4kEBluCDIoiPK5KzzY/+69ZH7
E1yHHYb9nO+2O4NqYiQgDG40n/5ZCQpx14Q5x9QeDm4MK4g5xrr2rmHO7fhKCZWt
8pvsbq1jOSz+ulgrBJkunY7JlJaXaOUKSzm4RM3o0AXIqrsGjA4o3Csvat4lbuKt
SY4N7w4+TVt51UCPWXgkyyuZ4aDakvsnUWCG0RQ54Xt1tnv74A4mt02tJRdPKSME
9R3mZTc979QvWaZZZAhIkmoPpRS78QyHWhx7LRCj1INWrhZq/AAMQentvPTsdVFs
jGtuzjnc0euJVzAo4yo6knkCAwEAAaOBnzCBnDAOBgNVHQ8BAf8EBAMCBaAwCQYD
VR0TBAIwADAdBgNVHSUEFjAUBggrBgEFBQcDAQYIKwYBBQUHAwIwHQYDVR0OBBYE
FIo2clSNCDtd4/mgXrDme5tf6wEjMB8GA1UdIwQYMBaAFJGx5+Cvk5sSjUL+OwfL
FNb5/4+xMCAGA1UdEQQZMBeBFXNlYi5jbGllbnRAc2ltcGxlLm9yZzANBgkqhkiG
9w0BAQUFAAOCAQEAiCU8aYK7443a8O4RI1gJqA0xd2MA/FA5G8DCjcvnRm3LN3xC
JkBRbdHDDotz/epqyBxbblN1/Bw6ITJx8Jlb6gNTVkYVHzm1nIJCm+njNaGkJpeh
OesmPumCW4W+Ln63sqrbDZiakv4X0hjOovZEFF12HTXGdSa+W7DWTb7nwhNTGZfx
XJ48ZxkXu3t908uTppGJ8e3+MvAD79smBN2WSC23FfES+MwYijhcV1qpYN0Kj8O6
/wEWVXJP/oyzjneCMzZKM3wFyeKnh5yTH3QBGUN440iTWg1/1X00Lxj/S1rW7EuU
Swu0JP/8+uTp8vr7ZG4ZRhGKHkHEqGH+8gKZmg==
-----END CERTIFICATE-----
