Certificate:
    Data:
        Version: 3 (0x2)
        Serial Number: 7 (0x7)
    Signature Algorithm: sha256WithRSAEncryption
        Issuer: DC=com, DC=example, O=Example Inc, OU=Example Signing CA, CN=Example Signing CA
        Validity
            Not Before: Oct 23 14:15:17 2018 GMT
            Not After : Oct 22 14:15:17 2028 GMT
        Subject: DC=com, DC=example, O=Example Inc, OU=Example Signing CA, CN=seb.client
        Subject Public Key Info:
            Public Key Algorithm: rsaEncryption
                Public-Key: (2048 bit)
                Modulus:
                    00:e2:8a:a1:34:ae:69:58:1d:e2:6b:b8:e2:21:b8:
                    aa:bc:4a:30:5e:1d:e1:a5:91:c3:59:7a:7b:52:3c:
                    02:7a:10:84:fc:ce:5a:4d:13:07:88:41:eb:bd:ca:
                    0a:33:50:cb:eb:e2:a8:b4:f5:73:70:1d:19:63:85:
                    82:5b:de:37:d8:05:d6:1a:83:76:bc:1b:00:1d:56:
                    9b:21:27:b1:a2:d6:bc:b2:6c:0b:84:21:df:f7:4b:
                    b6:74:11:32:cd:22:d9:e7:7b:b3:3f:f1:5f:be:a4:
                    16:70:51:44:85:b1:41:e6:1f:fb:8a:46:4e:e1:36:
                    67:ce:71:3c:f6:55:bc:98:3a:23:e9:bd:c2:92:04:
                    d0:25:a9:b7:97:33:89:85:8b:22:1f:8c:0f:62:ce:
                    77:0d:7d:b7:94:73:b0:a8:65:d6:ee:f1:60:dc:12:
                    b3:55:a5:a8:6e:63:ea:46:8d:97:ea:ca:47:ca:61:
                    78:ce:96:41:c8:37:41:31:d1:35:8b:9a:67:0c:25:
                    5d:e7:ac:44:fc:d5:f4:a8:cf:7a:0a:da:f5:1c:b1:
                    bc:ff:2d:b6:f8:71:b5:ba:92:dc:2e:a2:91:54:60:
                    c5:1d:0e:9a:e9:33:85:a3:00:76:46:de:ff:ed:23:
                    66:2f:0d:2c:c3:cd:79:75:ee:bd:ed:11:9c:4b:a3:
                    ff:fb
                Exponent: 65537 (0x10001)
        X509v3 extensions:
            X509v3 Key Usage: critical
                Digital Signature, Key Encipherment
            X509v3 Basic Constraints: 
                CA:FALSE
            X509v3 Extended Key Usage: 
                TLS Web Server Authentication, TLS Web Client Authentication
            X509v3 Subject Key Identifier: 
                C9:35:90:42:F0:BE:09:2A:6C:61:8C:07:76:9F:D7:2E:0C:FC:13:C2
            X509v3 Authority Key Identifier: 
                keyid:8E:84:6B:9D:6C:94:31:05:23:50:25:F5:35:4E:4E:88:7D:9B:C7:36

            X509v3 Subject Alternative Name: 
                email:seb.client@example.com
    Signature Algorithm: sha256WithRSAEncryption
         57:db:41:6a:f1:ef:16:2a:9c:9d:1d:3f:25:e1:d0:7b:be:aa:
         29:a4:94:a6:fe:c2:15:82:d4:7f:e2:ed:b5:d6:e9:a5:42:d1:
         35:f6:59:25:b5:97:2d:28:b9:a9:5c:55:9e:02:ce:41:5b:c3:
         fc:68:3c:52:12:e3:d0:c9:7f:4a:5f:70:d5:1d:3c:c2:5c:a4:
         c4:e3:ec:db:ff:ee:7b:32:bc:f1:96:40:90:77:f3:8f:b0:24:
         f6:dc:4b:d2:35:7b:c1:a8:87:03:f4:35:9c:3c:ba:7e:0b:dd:
         fe:f0:1c:33:ab:aa:bc:6c:e3:5f:89:92:88:43:b3:44:dd:d2:
         27:33:d5:8f:62:5f:9e:08:e1:1a:d1:78:e6:24:bd:20:d7:a0:
         a3:b2:99:7a:7c:0a:25:92:4c:8e:7f:0f:81:c1:f2:b5:ec:33:
         1d:92:20:a9:30:b9:31:39:45:cb:54:6b:d7:c0:ce:71:5e:f3:
         a1:0f:b5:12:9f:b6:23:6b:be:09:bd:98:d4:e5:8e:7a:c4:00:
         92:fc:27:45:be:e4:b5:e4:da:19:73:b2:5e:5b:b4:7c:00:e4:
         60:30:ce:ce:2d:6c:1d:6e:ea:c5:96:17:6d:ef:b0:4b:af:51:
         a8:2a:71:39:33:19:dd:9e:66:f3:f5:ab:d3:b2:5d:a5:a7:19:
         bb:da:fe:d8
-----BEGIN CERTIFICATE-----
MIIEEDCCAvigAwIBAgIBBzANBgkqhkiG9w0BAQsFADB+MRMwEQYKCZImiZPyLGQB
GRYDY29tMRcwFQYKCZImiZPyLGQBGRYHZXhhbXBsZTEUMBIGA1UECgwLRXhhbXBs
ZSBJbmMxGzAZBgNVBAsMEkV4YW1wbGUgU2lnbmluZyBDQTEbMBkGA1UEAwwSRXhh
bXBsZSBTaWduaW5nIENBMB4XDTE4MTAyMzE0MTUxN1oXDTI4MTAyMjE0MTUxN1ow
djETMBEGCgmSJomT8ixkARkWA2NvbTEXMBUGCgmSJomT8ixkARkWB2V4YW1wbGUx
FDASBgNVBAoMC0V4YW1wbGUgSW5jMRswGQYDVQQLDBJFeGFtcGxlIFNpZ25pbmcg
Q0ExEzARBgNVBAMMCnNlYi5jbGllbnQwggEiMA0GCSqGSIb3DQEBAQUAA4IBDwAw
ggEKAoIBAQDiiqE0rmlYHeJruOIhuKq8SjBeHeGlkcNZentSPAJ6EIT8zlpNEweI
Qeu9ygozUMvr4qi09XNwHRljhYJb3jfYBdYag3a8GwAdVpshJ7Gi1ryybAuEId/3
S7Z0ETLNItnne7M/8V++pBZwUUSFsUHmH/uKRk7hNmfOcTz2VbyYOiPpvcKSBNAl
qbeXM4mFiyIfjA9izncNfbeUc7CoZdbu8WDcErNVpahuY+pGjZfqykfKYXjOlkHI
N0Ex0TWLmmcMJV3nrET81fSoz3oK2vUcsbz/Lbb4cbW6ktwuopFUYMUdDprpM4Wj
AHZG3v/tI2YvDSzDzXl17r3tEZxLo//7AgMBAAGjgaAwgZ0wDgYDVR0PAQH/BAQD
AgWgMAkGA1UdEwQCMAAwHQYDVR0lBBYwFAYIKwYBBQUHAwEGCCsGAQUFBwMCMB0G
A1UdDgQWBBTJNZBC8L4JKmxhjAd2n9cuDPwTwjAfBgNVHSMEGDAWgBSOhGudbJQx
BSNQJfU1Tk6IfZvHNjAhBgNVHREEGjAYgRZzZWIuY2xpZW50QGV4YW1wbGUuY29t
MA0GCSqGSIb3DQEBCwUAA4IBAQBX20Fq8e8WKpydHT8l4dB7vqoppJSm/sIVgtR/
4u211umlQtE19lkltZctKLmpXFWeAs5BW8P8aDxSEuPQyX9KX3DVHTzCXKTE4+zb
/+57MrzxlkCQd/OPsCT23EvSNXvBqIcD9DWcPLp+C93+8Bwzq6q8bONfiZKIQ7NE
3dInM9WPYl+eCOEa0XjmJL0g16Cjspl6fAolkkyOfw+BwfK17DMdkiCpMLkxOUXL
VGvXwM5xXvOhD7USn7Yja74JvZjU5Y56xACS/CdFvuS15NoZc7JeW7R8AORgMM7O
LWwdburFlhdt77BLr1GoKnE5Mxndnmbz9avTsl2lpxm72v7Y
-----END CERTIFICATE-----
