Certificate:
    Data:
        Version: 3 (0x2)
        Serial Number: 8 (0x8)
        Signature Algorithm: sha256WithRSAEncryption
        Issuer: DC=org, DC=simple, O=Simple Inc, OU=Simple Signing CA, CN=Simple Signing CA
        Validity
            Not Before: Apr 19 10:14:30 2016 GMT
            Not After : Apr 19 10:14:30 2026 GMT
        Subject: DC=org, DC=simple, O=Simple Inc, OU=Simple Signing CA, CN=seb.client
        Subject Public Key Info:
            Public Key Algorithm: rsaEncryption
            RSA Public Key: (2048 bit)
                Modulus (2048 bit):
                    00:cf:81:86:a0:83:04:bb:26:4a:fd:58:47:1c:dc:
                    5e:80:54:3b:4c:7a:8e:39:b0:c4:af:f6:a9:07:1f:
                    4d:b3:6a:1c:13:33:e5:1c:d4:03:01:3d:79:0b:f5:
                    c8:5a:6c:c4:25:55:da:fb:10:9e:f7:c2:a3:df:2a:
                    f1:e9:04:b1:98:f8:37:59:54:c3:e4:86:75:35:77:
                    87:75:49:df:0f:9a:29:30:47:40:15:b1:9d:fd:7a:
                    72:88:a9:5a:f2:a4:2b:90:3f:3e:0f:09:14:1d:ac:
                    bc:f7:2d:8f:dd:98:01:49:76:e4:b9:1b:15:33:3c:
                    b0:5b:56:5e:7d:cd:1b:19:79:74:42:74:61:54:b7:
                    0f:6c:f8:b9:05:5e:53:ed:01:a3:6c:d2:24:a2:29:
                    99:1c:08:f9:1d:0c:42:83:9c:6b:2c:d1:a4:1d:43:
                    6e:64:81:3e:c3:13:e9:19:1f:55:c5:cd:c5:4c:5b:
                    66:e0:f6:be:f3:3a:fc:3a:c6:47:92:fb:e9:32:7f:
                    3f:e7:08:06:50:e1:b2:23:02:43:4d:f0:a6:68:cb:
                    6c:e3:5b:b4:ed:17:e7:d2:ca:de:a6:57:73:e7:f0:
                    4c:6e:16:98:62:ef:bb:6a:c1:ad:58:96:4a:9e:00:
                    eb:7a:8a:9a:8e:8d:d4:ee:e2:2a:07:ce:29:6a:42:
                    bb:5b
                Exponent: 65537 (0x10001)
        X509v3 extensions:
            X509v3 Key Usage: critical
                Digital Signature, Key Encipherment
            X509v3 Basic Constraints: 
                CA:FALSE
            X509v3 Extended Key Usage: 
                TLS Web Server Authentication, TLS Web Client Authentication
            X509v3 Subject Key Identifier: 
                D0:6A:59:0D:EB:35:49:93:0B:A4:B3:00:F0:4E:5D:3E:B0:CA:B6:C5
            X509v3 Authority Key Identifier: 
                keyid:0A:81:26:A3:E1:C9:0E:86:79:B4:7D:46:E9:FF:C1:9A:BF:C3:0C:74

            X509v3 Subject Alternative Name: 
                email:seb.client@simple.org
    Signature Algorithm: sha256WithRSAEncryption
        87:b8:d5:a4:c8:d0:29:bd:fd:a4:d9:90:bc:58:b4:0f:dd:39:
        7d:f4:c0:c7:46:af:d4:07:7b:72:2d:51:a6:75:4a:e6:82:76:
        ff:fc:19:ab:10:03:67:dc:f8:77:bc:22:05:f7:1e:71:2f:f4:
        b1:5e:81:82:ab:b1:77:ac:ee:53:b5:66:28:75:a0:ae:1b:93:
        ea:2a:f3:dd:c6:b3:69:be:c6:58:4c:e2:e6:82:d4:59:65:8a:
        67:30:98:f5:63:55:ce:34:82:2e:ff:d7:fe:83:f3:2c:63:0f:
        2c:63:89:29:89:2f:32:6c:1d:df:bc:12:e0:f2:fc:22:ff:ce:
        4f:27:9b:d5:2f:03:2e:60:46:76:07:33:62:31:da:50:d1:b3:
        46:5e:6b:8d:7a:47:a8:17:4b:23:a6:ed:55:ff:11:78:86:b1:
        b2:1f:90:88:ae:da:be:bf:02:7d:af:e9:82:52:77:5d:86:67:
        80:e7:a1:1a:b2:6f:37:c2:85:dc:a3:9d:f3:44:5c:13:5e:da:
        51:ab:4d:57:94:5a:96:37:35:7b:88:8a:f7:27:82:dd:83:98:
        c8:9e:61:03:22:86:96:b7:5b:87:28:ea:19:5f:11:5e:1c:d3:
        c8:34:9c:84:1c:4c:36:e6:01:4c:00:94:72:0d:14:1c:e5:fd:
        8a:fa:47:f8
-----BEGIN CERTIFICATE-----
MIIECDCCAvCgAwIBAgIBCDANBgkqhkiG9w0BAQsFADB6MRMwEQYKCZImiZPyLGQB
GRYDb3JnMRYwFAYKCZImiZPyLGQBGRYGc2ltcGxlMRMwEQYDVQQKDApTaW1wbGUg
SW5jMRowGAYDVQQLDBFTaW1wbGUgU2lnbmluZyBDQTEaMBgGA1UEAwwRU2ltcGxl
IFNpZ25pbmcgQ0EwHhcNMTYwNDE5MTAxNDMwWhcNMjYwNDE5MTAxNDMwWjBzMRMw
EQYKCZImiZPyLGQBGRYDb3JnMRYwFAYKCZImiZPyLGQBGRYGc2ltcGxlMRMwEQYD
VQQKDApTaW1wbGUgSW5jMRowGAYDVQQLDBFTaW1wbGUgU2lnbmluZyBDQTETMBEG
A1UEAwwKc2ViLmNsaWVudDCCASIwDQYJKoZIhvcNAQEBBQADggEPADCCAQoCggEB
AM+BhqCDBLsmSv1YRxzcXoBUO0x6jjmwxK/2qQcfTbNqHBMz5RzUAwE9eQv1yFps
xCVV2vsQnvfCo98q8ekEsZj4N1lUw+SGdTV3h3VJ3w+aKTBHQBWxnf16coipWvKk
K5A/Pg8JFB2svPctj92YAUl25LkbFTM8sFtWXn3NGxl5dEJ0YVS3D2z4uQVeU+0B
o2zSJKIpmRwI+R0MQoOcayzRpB1DbmSBPsMT6RkfVcXNxUxbZuD2vvM6/DrGR5L7
6TJ/P+cIBlDhsiMCQ03wpmjLbONbtO0X59LK3qZXc+fwTG4WmGLvu2rBrViWSp4A
63qKmo6N1O7iKgfOKWpCu1sCAwEAAaOBnzCBnDAOBgNVHQ8BAf8EBAMCBaAwCQYD
VR0TBAIwADAdBgNVHSUEFjAUBggrBgEFBQcDAQYIKwYBBQUHAwIwHQYDVR0OBBYE
FNBqWQ3rNUmTC6SzAPBOXT6wyrbFMB8GA1UdIwQYMBaAFAqBJqPhyQ6GebR9Run/
wZq/wwx0MCAGA1UdEQQZMBeBFXNlYi5jbGllbnRAc2ltcGxlLm9yZzANBgkqhkiG
9w0BAQsFAAOCAQEAh7jVpMjQKb39pNmQvFi0D905ffTAx0av1Ad7ci1RpnVK5oJ2
//wZqxADZ9z4d7wiBfcecS/0sV6Bgquxd6zuU7VmKHWgrhuT6irz3cazab7GWEzi
5oLUWWWKZzCY9WNVzjSCLv/X/oPzLGMPLGOJKYkvMmwd37wS4PL8Iv/OTyeb1S8D
LmBGdgczYjHaUNGzRl5rjXpHqBdLI6btVf8ReIaxsh+QiK7avr8Cfa/pglJ3XYZn
gOehGrJvN8KF3KOd80RcE17aUatNV5Raljc1e4iK9yeC3YOYyJ5hAyKGlrdbhyjq
GV8RXhzTyDSchBxMNuYBTACUcg0UHOX9ivpH+A==
-----END CERTIFICATE-----
