Certificate:
    Data:
        Version: 3 (0x2)
        Serial Number: 9 (0x9)
        Signature Algorithm: sha256WithRSAEncryption
        Issuer: DC=org, DC=simple, O=Simple Inc, OU=Simple Signing CA, CN=Simple Signing CA
        Validity
            Not Before: Apr 19 10:15:33 2016 GMT
            Not After : Apr 19 10:15:33 2026 GMT
        Subject: DC=org, DC=simple, O=Simple Inc, OU=Simple Signing CA, CN=seb.admin
        Subject Public Key Info:
            Public Key Algorithm: rsaEncryption
            RSA Public Key: (2048 bit)
                Modulus (2048 bit):
                    00:f2:55:83:03:f3:a6:b7:f7:68:f7:2f:85:64:d8:
                    d3:3a:26:82:ac:35:64:0f:4c:9b:6b:dd:34:a9:f1:
                    f7:72:66:7e:a3:b1:e0:45:b9:12:2f:28:4e:e9:63:
                    4c:d8:9a:a8:75:b8:49:9f:72:ff:49:77:4c:29:76:
                    39:f4:c1:3b:e5:0d:1f:4c:53:56:19:ca:f5:a8:aa:
                    96:bf:05:01:96:79:f2:8c:e2:03:56:87:a0:44:94:
                    fe:dc:fb:64:ea:fa:a1:ae:3d:06:0c:40:49:ce:9e:
                    80:d7:f3:61:c7:69:a3:d4:1d:fc:5d:db:ee:a8:75:
                    98:a1:9f:ed:5f:6b:5e:e6:f3:9e:62:1f:3f:17:eb:
                    69:e4:c5:ea:32:f4:d9:0f:61:ff:6b:b3:0f:21:ea:
                    7c:de:2f:0f:59:65:71:38:cb:d5:07:54:fa:3d:f5:
                    6d:1d:43:c7:ab:2a:d1:3f:33:23:08:3a:b7:5e:34:
                    c1:65:d2:fc:9f:d2:d6:0a:91:54:f7:d2:5b:40:ae:
                    f7:11:65:d8:2c:98:bd:29:3c:2f:ac:bd:b2:c5:d8:
                    98:50:88:19:80:3d:44:15:01:62:f1:a1:09:80:67:
                    26:65:c9:44:1a:82:9f:58:12:14:6c:c6:cb:15:7d:
                    9e:a5:87:db:5f:f8:4b:42:98:ad:6a:31:e5:07:eb:
                    f2:39
                Exponent: 65537 (0x10001)
        X509v3 extensions:
            X509v3 Key Usage: critical
                Digital Signature, Key Encipherment
            X509v3 Basic Constraints: 
                CA:FALSE
            X509v3 Extended Key Usage: 
                TLS Web Server Authentication, TLS Web Client Authentication
            X509v3 Subject Key Identifier: 
                96:84:A1:7A:38:F5:D7:15:DA:58:75:9F:B9:0C:6A:A4:4F:E5:BD:A4
            X509v3 Authority Key Identifier: 
                keyid:0A:81:26:A3:E1:C9:0E:86:79:B4:7D:46:E9:FF:C1:9A:BF:C3:0C:74

            X509v3 Subject Alternative Name: 
                email:seb.admin@simple.org
    Signature Algorithm: sha256WithRSAEncryption
        19:0d:1a:b4:ef:07:9c:d3:e8:34:ff:40:e2:6f:cf:28:30:69:
        23:da:1e:2f:dd:c7:b4:48:34:ec:ab:38:57:e6:7d:05:55:49:
        dc:0f:e0:6f:82:78:67:1d:76:b4:63:2f:72:cb:29:c2:df:88:
        d4:93:de:ff:60:4c:73:9f:d9:39:39:f7:00:0e:cb:19:cf:86:
        1e:08:70:70:78:35:45:20:08:5c:52:5d:35:07:36:87:5b:97:
        81:8d:08:44:15:23:24:06:38:66:85:d9:7c:b5:2b:0f:ab:f5:
        ec:7e:34:d0:63:f3:d8:da:ca:2d:1d:1d:9d:92:31:9f:09:69:
        2e:d6:3c:bd:61:9f:c2:9a:0b:16:36:7c:b6:28:2f:0c:2d:cc:
        47:99:f2:aa:0f:0b:4d:0f:48:cc:98:c4:d7:67:b3:70:32:b6:
        5c:95:25:e5:08:da:2c:8b:b9:21:76:29:94:f6:bf:b0:be:50:
        25:6b:fd:13:b3:bb:58:e8:41:c5:7e:d8:da:07:aa:63:f1:e7:
        26:e8:a8:9b:87:74:ef:99:8a:09:48:63:d7:6d:3b:9c:7a:a5:
        a1:1f:19:9c:92:d1:22:3e:33:34:2b:fd:7e:16:6e:32:83:c2:
        94:39:ff:9c:2e:44:fd:d3:ee:37:ab:89:60:71:ae:14:c0:eb:
        ca:09:a7:9d
-----BEGIN CERTIFICATE-----
MIIEBjCCAu6gAwIBAgIBCTANBgkqhkiG9w0BAQsFADB6MRMwEQYKCZImiZPyLGQB
GRYDb3JnMRYwFAYKCZImiZPyLGQBGRYGc2ltcGxlMRMwEQYDVQQKDApTaW1wbGUg
SW5jMRowGAYDVQQLDBFTaW1wbGUgU2lnbmluZyBDQTEaMBgGA1UEAwwRU2ltcGxl
IFNpZ25pbmcgQ0EwHhcNMTYwNDE5MTAxNTMzWhcNMjYwNDE5MTAxNTMzWjByMRMw
EQYKCZImiZPyLGQBGRYDb3JnMRYwFAYKCZImiZPyLGQBGRYGc2ltcGxlMRMwEQYD
VQQKDApTaW1wbGUgSW5jMRowGAYDVQQLDBFTaW1wbGUgU2lnbmluZyBDQTESMBAG
A1UEAwwJc2ViLmFkbWluMIIBIjANBgkqhkiG9w0BAQEFAAOCAQ8AMIIBCgKCAQEA
8lWDA/Omt/do9y+FZNjTOiaCrDVkD0yba900qfH3cmZ+o7HgRbkSLyhO6WNM2Jqo
dbhJn3L/SXdMKXY59ME75Q0fTFNWGcr1qKqWvwUBlnnyjOIDVoegRJT+3Ptk6vqh
rj0GDEBJzp6A1/Nhx2mj1B38XdvuqHWYoZ/tX2te5vOeYh8/F+tp5MXqMvTZD2H/
a7MPIep83i8PWWVxOMvVB1T6PfVtHUPHqyrRPzMjCDq3XjTBZdL8n9LWCpFU99Jb
QK73EWXYLJi9KTwvrL2yxdiYUIgZgD1EFQFi8aEJgGcmZclEGoKfWBIUbMbLFX2e
pYfbX/hLQpitajHlB+vyOQIDAQABo4GeMIGbMA4GA1UdDwEB/wQEAwIFoDAJBgNV
HRMEAjAAMB0GA1UdJQQWMBQGCCsGAQUFBwMBBggrBgEFBQcDAjAdBgNVHQ4EFgQU
loShejj11xXaWHWfuQxqpE/lvaQwHwYDVR0jBBgwFoAUCoEmo+HJDoZ5tH1G6f/B
mr/DDHQwHwYDVR0RBBgwFoEUc2ViLmFkbWluQHNpbXBsZS5vcmcwDQYJKoZIhvcN
AQELBQADggEBABkNGrTvB5zT6DT/QOJvzygwaSPaHi/dx7RINOyrOFfmfQVVSdwP
4G+CeGcddrRjL3LLKcLfiNST3v9gTHOf2Tk59wAOyxnPhh4IcHB4NUUgCFxSXTUH
Nodbl4GNCEQVIyQGOGaF2Xy1Kw+r9ex+NNBj89jayi0dHZ2SMZ8JaS7WPL1hn8Ka
CxY2fLYoLwwtzEeZ8qoPC00PSMyYxNdns3AytlyVJeUI2iyLuSF2KZT2v7C+UCVr
/ROzu1joQcV+2NoHqmPx5yboqJuHdO+ZiglIY9dtO5x6paEfGZyS0SI+MzQr/X4W
bjKDwpQ5/5wuRP3T7jeriWBxrhTA68oJp50=
-----END CERTIFICATE-----
