Certificate:
    Data:
        Version: 3 (0x2)
        Serial Number: 10 (0xa)
        Signature Algorithm: sha256WithRSAEncryption
        Issuer: DC=org, DC=simple, O=Simple Inc, OU=Simple Signing CA, CN=Simple Signing CA
        Validity
            Not Before: May  8 17:15:05 2016 GMT
            Not After : May  8 17:15:05 2026 GMT
        Subject: DC=org, DC=simple, O=Simple Inc, OU=Simple Signing CA, CN=www.simple.org
        Subject Public Key Info:
            Public Key Algorithm: rsaEncryption
            RSA Public Key: (2048 bit)
                Modulus (2048 bit):
                    00:c8:af:03:3d:dc:26:8e:15:03:68:fa:7f:b6:67:
                    95:cd:a5:41:6b:2e:45:1b:5b:65:f6:6c:2e:64:a8:
                    87:eb:77:24:41:28:85:20:6c:57:3f:01:21:93:9b:
                    16:68:c5:f9:0d:a5:b3:1c:8a:cf:7f:ff:c2:57:04:
                    2e:e0:1e:10:88:76:d8:b4:65:b9:a0:29:dc:f6:60:
                    c2:6a:67:9a:79:d0:8e:3c:a3:e6:8c:c2:74:a6:5b:
                    e4:aa:e9:0e:35:10:b1:b0:0c:2c:28:5d:38:20:84:
                    bf:71:92:f2:02:38:58:dd:97:3e:47:a3:bc:8a:ce:
                    52:67:0f:ab:6d:ef:da:35:8a:95:36:0a:fa:20:b5:
                    49:52:10:76:5a:2f:cb:89:1f:3d:74:a5:87:9d:fa:
                    e1:e1:a4:f2:80:cd:f5:14:5e:14:74:c7:2b:ed:9b:
                    35:27:ca:bf:da:13:4d:7f:88:e4:58:09:8f:7f:04:
                    12:7f:18:c2:02:21:27:ff:3a:4a:cf:f8:a4:da:f5:
                    29:84:5e:68:53:f8:d8:f9:b5:b9:37:51:22:83:fd:
                    98:18:4b:25:f7:27:22:19:96:f7:f9:91:60:cd:4d:
                    cf:82:72:62:76:bc:80:9e:f0:56:d0:8f:7a:fb:d9:
                    18:dd:e2:74:06:df:ec:d3:a8:2e:e3:af:4f:3c:91:
                    93:81
                Exponent: 65537 (0x10001)
        X509v3 extensions:
            X509v3 Key Usage: critical
                Digital Signature, Key Encipherment
            X509v3 Basic Constraints: 
                CA:FALSE
            X509v3 Extended Key Usage: 
                TLS Web Server Authentication, TLS Web Client Authentication
            X509v3 Subject Key Identifier: 
                FE:9B:FE:27:79:F6:8E:6D:C1:32:0F:2B:6B:10:09:02:52:AF:F7:F6
            X509v3 Authority Key Identifier: 
                keyid:0A:81:26:A3:E1:C9:0E:86:79:B4:7D:46:E9:FF:C1:9A:BF:C3:0C:74

            X509v3 Subject Alternative Name: 
                DNS:*.simple.org, DNS:localhost, IP Address:127.0.0.1, IP Address:192.168.224.1
    Signature Algorithm: sha256WithRSAEncryption
        2e:dc:84:48:f5:95:1a:e4:a8:08:83:7e:81:85:ad:4d:5d:49:
        5b:a1:30:94:92:17:41:47:83:c8:65:0f:56:86:f5:9e:4f:27:
        36:eb:01:2b:05:2e:26:12:e5:5e:2c:1f:6d:08:df:3f:5b:7b:
        41:0c:90:75:62:61:a2:ed:cc:9a:c8:19:dd:99:a9:01:f0:00:
        c8:fb:d6:0f:33:5f:f4:83:b8:08:ce:6c:d1:02:9e:7d:09:57:
        dd:09:2e:fd:73:fc:e9:18:bc:b9:d5:ab:d5:9e:45:69:1b:ae:
        39:a2:ab:0c:7a:f4:83:9f:29:39:8d:8e:14:eb:79:14:38:24:
        58:54:c1:4e:d3:c7:90:60:f7:a5:a4:bc:4f:c9:50:84:db:1a:
        f0:5a:fe:5d:39:dc:c6:33:76:f1:b9:82:d6:95:de:3d:86:f8:
        e0:cb:37:1b:6f:95:37:c9:2d:49:6b:be:c1:70:e5:9a:0e:81:
        da:2a:c1:64:d7:29:84:ec:b3:14:01:1a:de:bb:49:e1:44:cb:
        df:7b:ae:8e:61:f7:af:23:4b:0b:1d:ee:5f:a9:13:b7:69:0f:
        e3:e5:eb:43:38:b8:8b:1f:87:3b:b6:ee:f7:a5:a2:c5:9e:77:
        3b:d9:ea:77:6b:84:22:8d:3e:cb:7c:a4:8e:9e:d2:6b:a8:ae:
        f7:a6:1e:a1
-----BEGIN CERTIFICATE-----
MIIEGjCCAwKgAwIBAgIBCjANBgkqhkiG9w0BAQsFADB6MRMwEQYKCZImiZPyLGQB
GRYDb3JnMRYwFAYKCZImiZPyLGQBGRYGc2ltcGxlMRMwEQYDVQQKDApTaW1wbGUg
SW5jMRowGAYDVQQLDBFTaW1wbGUgU2lnbmluZyBDQTEaMBgGA1UEAwwRU2ltcGxl
IFNpZ25pbmcgQ0EwHhcNMTYwNTA4MTcxNTA1WhcNMjYwNTA4MTcxNTA1WjB3MRMw
EQYKCZImiZPyLGQBGRYDb3JnMRYwFAYKCZImiZPyLGQBGRYGc2ltcGxlMRMwEQYD
VQQKDApTaW1wbGUgSW5jMRowGAYDVQQLDBFTaW1wbGUgU2lnbmluZyBDQTEXMBUG
A1UEAwwOd3d3LnNpbXBsZS5vcmcwggEiMA0GCSqGSIb3DQEBAQUAA4IBDwAwggEK
AoIBAQDIrwM93CaOFQNo+n+2Z5XNpUFrLkUbW2X2bC5kqIfrdyRBKIUgbFc/ASGT
mxZoxfkNpbMcis9//8JXBC7gHhCIdti0ZbmgKdz2YMJqZ5p50I48o+aMwnSmW+Sq
6Q41ELGwDCwoXTgghL9xkvICOFjdlz5Ho7yKzlJnD6tt79o1ipU2CvogtUlSEHZa
L8uJHz10pYed+uHhpPKAzfUUXhR0xyvtmzUnyr/aE01/iORYCY9/BBJ/GMICISf/
OkrP+KTa9SmEXmhT+Nj5tbk3USKD/ZgYSyX3JyIZlvf5kWDNTc+CcmJ2vICe8FbQ
j3r72Rjd4nQG3+zTqC7jr088kZOBAgMBAAGjga0wgaowDgYDVR0PAQH/BAQDAgWg
MAkGA1UdEwQCMAAwHQYDVR0lBBYwFAYIKwYBBQUHAwEGCCsGAQUFBwMCMB0GA1Ud
DgQWBBT+m/4nefaObcEyDytrEAkCUq/39jAfBgNVHSMEGDAWgBQKgSaj4ckOhnm0
fUbp/8Gav8MMdDAuBgNVHREEJzAlggwqLnNpbXBsZS5vcmeCCWxvY2FsaG9zdIcE
fwAAAYcEwKjgATANBgkqhkiG9w0BAQsFAAOCAQEALtyESPWVGuSoCIN+gYWtTV1J
W6EwlJIXQUeDyGUPVob1nk8nNusBKwUuJhLlXiwfbQjfP1t7QQyQdWJhou3MmsgZ
3ZmpAfAAyPvWDzNf9IO4CM5s0QKefQlX3Qku/XP86Ri8udWr1Z5FaRuuOaKrDHr0
g58pOY2OFOt5FDgkWFTBTtPHkGD3paS8T8lQhNsa8Fr+XTncxjN28bmC1pXePYb4
4Ms3G2+VN8ktSWu+wXDlmg6B2irBZNcphOyzFAEa3rtJ4UTL33uujmH3ryNLCx3u
X6kTt2kP4+XrQzi4ix+HO7bu96WixZ53O9nqd2uEIo0+y3ykjp7Sa6iu96YeoQ==
-----END CERTIFICATE-----
