Certificate:
    Data:
        Version: 3 (0x2)
        Serial Number: 11 (0xb)
        Signature Algorithm: sha256WithRSAEncryption
        Issuer: DC=org, DC=simple, O=Simple Inc, OU=Simple Signing CA, CN=Simple Signing CA
        Validity
            Not Before: Aug 14 14:54:59 2016 GMT
            Not After : Aug 14 14:54:59 2026 GMT
        Subject: DC=org, DC=simple, O=Simple Inc, OU=Simple Signing CA, CN=www.simple.org
        Subject Public Key Info:
            Public Key Algorithm: rsaEncryption
            RSA Public Key: (2048 bit)
                Modulus (2048 bit):
                    00:eb:41:a2:ce:16:9e:81:f7:41:b3:93:d2:18:09:
                    92:da:7e:f8:e9:52:39:f7:1b:b2:32:1b:79:96:19:
                    99:41:17:80:79:bf:ca:8c:8e:ec:5c:5f:ab:74:18:
                    15:d0:b9:87:2b:ad:af:bd:1e:4d:4d:65:ab:98:fa:
                    a6:5d:02:80:38:38:01:fc:46:a9:9f:81:83:d4:04:
                    6d:c5:25:81:99:c4:10:81:29:f5:f5:b4:02:67:33:
                    59:73:a9:81:01:90:4b:f7:a5:f8:3c:4d:0f:51:11:
                    05:d9:2d:b1:fa:2e:34:e5:b1:45:6f:b2:9b:b7:0c:
                    d5:7d:d1:e3:1d:45:a5:ab:5b:99:ff:c3:ea:77:00:
                    c5:59:07:d0:e0:ff:f1:25:8b:f6:36:fb:0b:83:39:
                    5c:82:d7:f5:d3:0a:9b:ec:eb:2f:23:76:e1:f8:a4:
                    76:a4:87:9f:5a:03:98:23:22:59:51:37:e5:e1:fd:
                    2b:43:6a:2e:98:b1:14:78:63:32:ef:c8:06:f8:8c:
                    47:9d:14:3f:e1:78:19:7c:4d:3f:34:d5:5a:54:cd:
                    17:22:0f:57:bd:0f:45:6d:01:39:aa:32:ad:66:45:
                    08:42:a0:67:11:b4:b3:cb:50:4e:fc:9b:91:a2:8f:
                    b8:ac:74:12:54:37:04:44:ae:6e:d0:aa:62:51:30:
                    5e:45
                Exponent: 65537 (0x10001)
        X509v3 extensions:
            X509v3 Key Usage: critical
                Digital Signature, Key Encipherment
            X509v3 Basic Constraints: 
                CA:FALSE
            X509v3 Extended Key Usage: 
                TLS Web Server Authentication, TLS Web Client Authentication
            X509v3 Subject Key Identifier: 
                CF:89:6C:B4:1A:65:63:41:8C:19:FC:7C:C4:BC:FE:CD:69:E3:FC:B4
            X509v3 Authority Key Identifier: 
                keyid:54:92:5A:1A:46:49:0B:A7:B7:AD:9E:BC:BF:67:62:5B:0A:ED:00:30

            X509v3 Subject Alternative Name: 
                DNS:*.simple.org, DNS:localhost, IP Address:127.0.0.1, IP Address:192.168.224.1
    Signature Algorithm: sha256WithRSAEncryption
        24:77:d0:7e:e9:5f:0e:ec:c5:1c:3f:9f:3e:46:7f:ca:8e:0b:
        d9:54:4a:fa:9e:b3:80:03:6e:55:75:d7:5f:5b:53:a8:5a:ac:
        9a:bf:c2:7d:75:15:07:74:46:39:d2:77:b3:fc:4a:9d:d6:99:
        00:e4:f2:de:04:57:f3:bd:29:0c:5c:99:2d:24:71:e2:66:ef:
        69:98:75:f9:8d:d7:71:3a:32:eb:5d:ca:e1:d0:29:19:e5:98:
        b2:2b:a2:db:26:38:f1:ee:1c:ee:01:c7:2b:d9:a2:c4:89:49:
        34:48:c6:3b:b6:09:08:0d:c9:37:a9:37:97:ce:aa:7b:5d:4e:
        ec:ca:30:88:0e:35:3b:37:b1:6b:91:99:12:3f:7d:dd:12:e0:
        89:dd:59:b5:2b:4f:a9:0f:3c:b3:0f:6f:d1:82:0c:8c:c1:5a:
        c6:80:23:20:bf:ac:19:8f:fd:9c:a8:fc:dd:02:6b:fc:91:9b:
        f9:ee:a7:29:42:bb:dd:ed:ba:58:b4:f1:8f:e3:af:56:82:86:
        19:f1:fe:00:27:5e:3a:68:9d:75:58:66:8d:5b:72:48:e1:09:
        8d:19:3e:f4:c8:81:9e:2a:6b:e4:a0:dd:8e:82:56:68:f3:16:
        f6:da:29:a3:85:e2:fa:dc:72:da:1b:45:d9:2e:94:7f:54:3a:
        9f:85:9e:a1
-----BEGIN CERTIFICATE-----
MIIEGjCCAwKgAwIBAgIBCzANBgkqhkiG9w0BAQsFADB6MRMwEQYKCZImiZPyLGQB
GRYDb3JnMRYwFAYKCZImiZPyLGQBGRYGc2ltcGxlMRMwEQYDVQQKDApTaW1wbGUg
SW5jMRowGAYDVQQLDBFTaW1wbGUgU2lnbmluZyBDQTEaMBgGA1UEAwwRU2ltcGxl
IFNpZ25pbmcgQ0EwHhcNMTYwODE0MTQ1NDU5WhcNMjYwODE0MTQ1NDU5WjB3MRMw
EQYKCZImiZPyLGQBGRYDb3JnMRYwFAYKCZImiZPyLGQBGRYGc2ltcGxlMRMwEQYD
VQQKDApTaW1wbGUgSW5jMRowGAYDVQQLDBFTaW1wbGUgU2lnbmluZyBDQTEXMBUG
A1UEAwwOd3d3LnNpbXBsZS5vcmcwggEiMA0GCSqGSIb3DQEBAQUAA4IBDwAwggEK
AoIBAQDrQaLOFp6B90Gzk9IYCZLafvjpUjn3G7IyG3mWGZlBF4B5v8qMjuxcX6t0
GBXQuYcrra+9Hk1NZauY+qZdAoA4OAH8RqmfgYPUBG3FJYGZxBCBKfX1tAJnM1lz
qYEBkEv3pfg8TQ9REQXZLbH6LjTlsUVvspu3DNV90eMdRaWrW5n/w+p3AMVZB9Dg
//Eli/Y2+wuDOVyC1/XTCpvs6y8jduH4pHakh59aA5gjIllRN+Xh/StDai6YsRR4
YzLvyAb4jEedFD/heBl8TT801VpUzRciD1e9D0VtATmqMq1mRQhCoGcRtLPLUE78
m5Gij7isdBJUNwRErm7QqmJRMF5FAgMBAAGjga0wgaowDgYDVR0PAQH/BAQDAgWg
MAkGA1UdEwQCMAAwHQYDVR0lBBYwFAYIKwYBBQUHAwEGCCsGAQUFBwMCMB0GA1Ud
DgQWBBTPiWy0GmVjQYwZ/HzEvP7NaeP8tDAfBgNVHSMEGDAWgBRUkloaRkkLp7et
nry/Z2JbCu0AMDAuBgNVHREEJzAlggwqLnNpbXBsZS5vcmeCCWxvY2FsaG9zdIcE
fwAAAYcEwKjgATANBgkqhkiG9w0BAQsFAAOCAQEAJHfQfulfDuzFHD+fPkZ/yo4L
2VRK+p6zgANuVXXXX1tTqFqsmr/CfXUVB3RGOdJ3s/xKndaZAOTy3gRX870pDFyZ
LSRx4mbvaZh1+Y3XcToy613K4dApGeWYsiui2yY48e4c7gHHK9mixIlJNEjGO7YJ
CA3JN6k3l86qe11O7MowiA41Ozexa5GZEj993RLgid1ZtStPqQ88sw9v0YIMjMFa
xoAjIL+sGY/9nKj83QJr/JGb+e6nKUK73e26WLTxj+OvVoKGGfH+ACdeOmiddVhm
jVtySOEJjRk+9MiBnipr5KDdjoJWaPMW9topo4Xi+txy2htF2S6Uf1Q6n4WeoQ==
-----END CERTIFICATE-----
