Certificate:
    Data:
        Version: 3 (0x2)
        Serial Number: 12 (0xc)
        Signature Algorithm: sha256WithRSAEncryption
        Issuer: DC=org, DC=simple, O=Simple Inc, OU=Simple Signing CA, CN=Simple Signing CA
        Validity
            Not Before: Aug 14 14:55:56 2016 GMT
            Not After : Aug 14 14:55:56 2026 GMT
        Subject: DC=org, DC=simple, O=Simple Inc, OU=Simple Signing CA, CN=seb.client
        Subject Public Key Info:
            Public Key Algorithm: rsaEncryption
            RSA Public Key: (2048 bit)
                Modulus (2048 bit):
                    00:bc:9b:47:b6:14:17:ba:3d:e5:75:de:7a:52:11:
                    15:9a:ef:12:89:7e:06:c4:f9:5f:f9:14:d1:ad:99:
                    7d:a8:18:d1:3f:49:75:fb:78:75:e3:b7:c6:1c:3c:
                    4b:a2:a7:5e:ea:35:ce:f3:0b:fe:9a:1c:9d:58:c2:
                    df:44:a0:7a:ea:78:ea:82:1f:48:1f:c4:d7:18:61:
                    75:71:33:e5:9f:c9:95:0d:05:99:04:14:d8:d5:34:
                    95:93:ef:ea:cc:30:3a:0c:cf:0c:a9:17:d1:d8:37:
                    3e:75:be:68:78:de:f9:af:c0:ee:22:57:c7:80:3c:
                    23:d4:39:1f:fe:95:72:95:f5:8f:da:44:15:d2:96:
                    58:50:f2:1b:73:c8:b8:d3:c4:1c:c7:66:31:f4:19:
                    c9:13:98:b7:1d:8c:3e:85:9f:b7:bf:14:ea:bb:30:
                    74:b2:f2:5d:0d:68:fc:c5:d6:58:59:a6:a8:73:90:
                    23:2f:b9:4f:d1:7c:38:85:15:d5:3f:fe:ad:40:a9:
                    57:21:12:8a:aa:bc:2e:cd:8c:b9:de:14:ed:94:64:
                    7c:ce:9e:56:77:04:7b:72:72:f3:e4:9e:d7:b3:d1:
                    66:3c:ed:21:b0:8e:6c:a0:f6:a5:60:16:79:1d:83:
                    62:1b:ed:36:8a:e4:99:ea:72:93:35:d8:13:9c:1c:
                    38:8f
                Exponent: 65537 (0x10001)
        X509v3 extensions:
            X509v3 Key Usage: critical
                Digital Signature, Key Encipherment
            X509v3 Basic Constraints: 
                CA:FALSE
            X509v3 Extended Key Usage: 
                TLS Web Server Authentication, TLS Web Client Authentication
            X509v3 Subject Key Identifier: 
                9F:68:F0:B1:69:B9:13:6F:94:C3:CF:7F:80:B3:80:F7:92:18:B0:69
            X509v3 Authority Key Identifier: 
                keyid:54:92:5A:1A:46:49:0B:A7:B7:AD:9E:BC:BF:67:62:5B:0A:ED:00:30

            X509v3 Subject Alternative Name: 
                email:seb.client@simple.org
    Signature Algorithm: sha256WithRSAEncryption
        84:85:c2:1d:bd:c9:50:fa:21:8e:70:72:03:75:ba:10:df:17:
        a6:30:04:83:27:a4:0e:91:92:fb:57:ef:ba:04:a7:44:6e:b0:
        49:c3:70:19:8b:e3:67:f9:5d:5b:2b:bd:ad:34:99:2a:27:27:
        46:a2:4a:15:e8:57:b8:fd:6a:f6:0c:04:6e:cd:c5:ee:01:f8:
        ce:49:68:96:3d:b8:e9:d3:77:40:d2:f8:01:d4:07:95:fd:37:
        72:59:7e:6b:df:78:72:06:7b:a9:7a:ab:00:11:f8:5c:0a:dd:
        51:b3:89:dd:8f:7e:42:15:fd:26:16:bb:a5:3e:4f:b8:7c:fd:
        4c:9f:af:1a:dd:1b:35:6b:60:32:ff:43:70:6c:27:af:88:85:
        0d:8c:29:78:bd:ce:15:69:ff:fb:6b:02:8d:02:63:e7:bf:c5:
        b6:32:bb:09:a2:8b:f5:c7:f6:37:d2:2f:56:14:91:ad:34:bd:
        c9:26:28:f4:79:5d:fa:bf:41:fa:79:75:b5:9b:1b:cb:ad:c4:
        9f:c2:65:c5:3e:5f:0b:ec:f3:78:3f:23:61:99:15:27:e9:9c:
        d4:ad:74:a5:6a:64:67:34:1d:b9:9d:5d:4d:8b:02:f1:d3:f2:
        ff:d8:01:6d:6b:a7:90:53:2f:ee:3a:53:41:3a:89:a4:6c:ee:
        36:21:ea:3b
-----BEGIN CERTIFICATE-----
MIIECDCCAvCgAwIBAgIBDDANBgkqhkiG9w0BAQsFADB6MRMwEQYKCZImiZPyLGQB
GRYDb3JnMRYwFAYKCZImiZPyLGQBGRYGc2ltcGxlMRMwEQYDVQQKDApTaW1wbGUg
SW5jMRowGAYDVQQLDBFTaW1wbGUgU2lnbmluZyBDQTEaMBgGA1UEAwwRU2ltcGxl
IFNpZ25pbmcgQ0EwHhcNMTYwODE0MTQ1NTU2WhcNMjYwODE0MTQ1NTU2WjBzMRMw
EQYKCZImiZPyLGQBGRYDb3JnMRYwFAYKCZImiZPyLGQBGRYGc2ltcGxlMRMwEQYD
VQQKDApTaW1wbGUgSW5jMRowGAYDVQQLDBFTaW1wbGUgU2lnbmluZyBDQTETMBEG
A1UEAwwKc2ViLmNsaWVudDCCASIwDQYJKoZIhvcNAQEBBQADggEPADCCAQoCggEB
ALybR7YUF7o95XXeelIRFZrvEol+BsT5X/kU0a2ZfagY0T9Jdft4deO3xhw8S6Kn
Xuo1zvML/pocnVjC30Sgeup46oIfSB/E1xhhdXEz5Z/JlQ0FmQQU2NU0lZPv6sww
OgzPDKkX0dg3PnW+aHje+a/A7iJXx4A8I9Q5H/6VcpX1j9pEFdKWWFDyG3PIuNPE
HMdmMfQZyROYtx2MPoWft78U6rswdLLyXQ1o/MXWWFmmqHOQIy+5T9F8OIUV1T/+
rUCpVyESiqq8Ls2Mud4U7ZRkfM6eVncEe3Jy8+Se17PRZjztIbCObKD2pWAWeR2D
YhvtNorkmepykzXYE5wcOI8CAwEAAaOBnzCBnDAOBgNVHQ8BAf8EBAMCBaAwCQYD
VR0TBAIwADAdBgNVHSUEFjAUBggrBgEFBQcDAQYIKwYBBQUHAwIwHQYDVR0OBBYE
FJ9o8LFpuRNvlMPPf4CzgPeSGLBpMB8GA1UdIwQYMBaAFFSSWhpGSQunt62evL9n
YlsK7QAwMCAGA1UdEQQZMBeBFXNlYi5jbGllbnRAc2ltcGxlLm9yZzANBgkqhkiG
9w0BAQsFAAOCAQEAhIXCHb3JUPohjnByA3W6EN8XpjAEgyekDpGS+1fvugSnRG6w
ScNwGYvjZ/ldWyu9rTSZKicnRqJKFehXuP1q9gwEbs3F7gH4zklolj246dN3QNL4
AdQHlf03cll+a994cgZ7qXqrABH4XArdUbOJ3Y9+QhX9Jha7pT5PuHz9TJ+vGt0b
NWtgMv9DcGwnr4iFDYwpeL3OFWn/+2sCjQJj57/FtjK7CaKL9cf2N9IvVhSRrTS9
ySYo9Hld+r9B+nl1tZsby63En8JlxT5fC+zzeD8jYZkVJ+mc1K10pWpkZzQduZ1d
TYsC8dPy/9gBbWunkFMv7jpTQTqJpGzuNiHqOw==
-----END CERTIFICATE-----
