Certificate:
    Data:
        Version: 3 (0x2)
        Serial Number: 13 (0xd)
        Signature Algorithm: sha256WithRSAEncryption
        Issuer: DC=org, DC=simple, O=Simple Inc, OU=Simple Signing CA, CN=Simple Signing CA
        Validity
            Not Before: Aug 14 14:56:51 2016 GMT
            Not After : Aug 14 14:56:51 2026 GMT
        Subject: DC=org, DC=simple, O=Simple Inc, OU=Simple Signing CA, CN=seb.admin
        Subject Public Key Info:
            Public Key Algorithm: rsaEncryption
            RSA Public Key: (2048 bit)
                Modulus (2048 bit):
                    00:b9:44:2f:1a:01:f9:00:24:73:08:f5:a8:39:6b:
                    c4:48:45:2e:39:5b:0b:5c:ca:d1:a2:73:35:56:e0:
                    85:25:78:3c:a3:b1:86:49:b2:2b:de:ca:39:e1:81:
                    4c:f6:f4:a8:11:43:f4:79:df:3e:65:e1:83:1d:f7:
                    2c:32:37:30:d6:2a:76:07:a3:3b:9c:8d:42:c1:31:
                    9d:a5:13:56:0d:2e:c2:e9:f6:72:71:f8:c3:a7:db:
                    7d:fa:1a:51:14:94:4f:2d:79:55:07:8c:3e:8b:64:
                    cc:77:9f:40:b0:d0:22:16:64:1c:be:df:40:9e:0c:
                    37:c9:06:ef:01:46:73:1b:05:86:b3:2d:fb:f6:bb:
                    31:03:5d:74:99:b7:0f:50:58:84:f4:c4:fd:a4:13:
                    33:14:2f:e6:c7:50:e0:e9:02:f5:d8:b5:e3:27:0c:
                    65:fa:b5:a9:f7:52:d3:88:2a:ff:5e:be:49:4c:11:
                    29:3f:75:0c:48:a8:85:61:d7:ba:d0:ac:7d:89:f9:
                    e5:a0:e8:88:0f:50:b7:77:0c:48:c5:e9:91:36:c2:
                    d6:4e:3b:1a:24:7a:4f:e7:48:53:03:91:a2:31:e1:
                    67:5e:51:36:f2:41:9a:d9:cc:39:61:3d:cf:32:29:
                    65:db:70:78:a4:d4:4a:3a:df:4f:a4:17:8f:86:36:
                    5c:3d
                Exponent: 65537 (0x10001)
        X509v3 extensions:
            X509v3 Key Usage: critical
                Digital Signature, Key Encipherment
            X509v3 Basic Constraints: 
                CA:FALSE
            X509v3 Extended Key Usage: 
                TLS Web Server Authentication, TLS Web Client Authentication
            X509v3 Subject Key Identifier: 
                0B:58:B9:13:45:EE:43:43:C1:72:F2:C8:3D:58:34:96:19:A9:F8:0B
            X509v3 Authority Key Identifier: 
                keyid:54:92:5A:1A:46:49:0B:A7:B7:AD:9E:BC:BF:67:62:5B:0A:ED:00:30

            X509v3 Subject Alternative Name: 
                email:seb.admin@simple.org
    Signature Algorithm: sha256WithRSAEncryption
        19:6a:a6:f5:1b:90:40:40:e1:53:a7:f0:65:3d:8b:31:f5:22:
        fd:28:49:0e:29:fa:93:e5:88:68:0e:0f:80:00:d3:38:4e:23:
        b0:74:94:39:f2:8b:64:d4:60:78:90:13:10:9d:1a:07:d0:e6:
        21:05:11:75:30:c2:f6:3b:03:17:38:00:42:f4:0e:94:1c:a6:
        38:ea:74:89:1d:4b:e6:c4:e7:54:b7:73:95:36:7a:ee:30:8b:
        18:0d:c9:64:da:d7:98:4c:d5:74:39:27:51:09:03:3e:44:1e:
        05:f8:83:d8:f1:63:b4:65:7a:71:12:e7:4a:36:d4:f1:a7:3c:
        6b:b7:29:6d:e8:1f:05:fb:b0:31:70:e9:81:13:c6:b0:66:e1:
        ae:e1:1d:20:ae:a8:d6:fe:f8:74:a7:2d:78:b6:9a:86:c7:6e:
        a2:b3:7f:2d:c0:db:5f:ab:27:03:d5:a1:86:58:37:2c:9a:5c:
        45:95:17:26:5b:23:63:42:1b:61:ac:6c:d2:bc:8d:86:fd:e2:
        bd:ea:81:2b:09:d3:53:5d:09:a9:9b:bd:93:ff:45:4b:18:3c:
        3d:c6:36:b7:03:0e:de:c2:5e:42:a2:62:10:ad:0e:5d:bd:b7:
        9c:29:c6:0f:94:5a:07:bb:be:af:9f:ba:8d:76:47:45:5e:28:
        43:09:fb:7a
-----BEGIN CERTIFICATE-----
MIIEBjCCAu6gAwIBAgIBDTANBgkqhkiG9w0BAQsFADB6MRMwEQYKCZImiZPyLGQB
GRYDb3JnMRYwFAYKCZImiZPyLGQBGRYGc2ltcGxlMRMwEQYDVQQKDApTaW1wbGUg
SW5jMRowGAYDVQQLDBFTaW1wbGUgU2lnbmluZyBDQTEaMBgGA1UEAwwRU2ltcGxl
IFNpZ25pbmcgQ0EwHhcNMTYwODE0MTQ1NjUxWhcNMjYwODE0MTQ1NjUxWjByMRMw
EQYKCZImiZPyLGQBGRYDb3JnMRYwFAYKCZImiZPyLGQBGRYGc2ltcGxlMRMwEQYD
VQQKDApTaW1wbGUgSW5jMRowGAYDVQQLDBFTaW1wbGUgU2lnbmluZyBDQTESMBAG
A1UEAwwJc2ViLmFkbWluMIIBIjANBgkqhkiG9w0BAQEFAAOCAQ8AMIIBCgKCAQEA
uUQvGgH5ACRzCPWoOWvESEUuOVsLXMrRonM1VuCFJXg8o7GGSbIr3so54YFM9vSo
EUP0ed8+ZeGDHfcsMjcw1ip2B6M7nI1CwTGdpRNWDS7C6fZycfjDp9t9+hpRFJRP
LXlVB4w+i2TMd59AsNAiFmQcvt9Angw3yQbvAUZzGwWGsy379rsxA110mbcPUFiE
9MT9pBMzFC/mx1Dg6QL12LXjJwxl+rWp91LTiCr/Xr5JTBEpP3UMSKiFYde60Kx9
ifnloOiID1C3dwxIxemRNsLWTjsaJHpP50hTA5GiMeFnXlE28kGa2cw5YT3PMill
23B4pNRKOt9PpBePhjZcPQIDAQABo4GeMIGbMA4GA1UdDwEB/wQEAwIFoDAJBgNV
HRMEAjAAMB0GA1UdJQQWMBQGCCsGAQUFBwMBBggrBgEFBQcDAjAdBgNVHQ4EFgQU
C1i5E0XuQ0PBcvLIPVg0lhmp+AswHwYDVR0jBBgwFoAUVJJaGkZJC6e3rZ68v2di
WwrtADAwHwYDVR0RBBgwFoEUc2ViLmFkbWluQHNpbXBsZS5vcmcwDQYJKoZIhvcN
AQELBQADggEBABlqpvUbkEBA4VOn8GU9izH1Iv0oSQ4p+pPliGgOD4AA0zhOI7B0
lDnyi2TUYHiQExCdGgfQ5iEFEXUwwvY7Axc4AEL0DpQcpjjqdIkdS+bE51S3c5U2
eu4wixgNyWTa15hM1XQ5J1EJAz5EHgX4g9jxY7RlenES50o21PGnPGu3KW3oHwX7
sDFw6YETxrBm4a7hHSCuqNb++HSnLXi2mobHbqKzfy3A21+rJwPVoYZYNyyaXEWV
FyZbI2NCG2GsbNK8jYb94r3qgSsJ01NdCambvZP/RUsYPD3GNrcDDt7CXkKiYhCt
Dl29t5wpxg+UWge7vq+fuo12R0VeKEMJ+3o=
-----END CERTIFICATE-----
