Certificate:
    Data:
        Version: 3 (0x2)
        Serial Number: 2 (0x2)
    Signature Algorithm: sha256WithRSAEncryption
        Issuer: DC=com, DC=example, O=Example Inc, OU=Example Root CA, CN=Example Root CA
        Validity
            Not Before: May 12 15:36:20 2018 GMT
            Not After : May 11 15:36:20 2028 GMT
        Subject: DC=com, DC=example, O=Example Inc, OU=Example Signing CA, CN=Example Signing CA
        Subject Public Key Info:
            Public Key Algorithm: rsaEncryption
                Public-Key: (2048 bit)
                Modulus:
                    00:c2:29:e0:f7:19:6f:cf:6a:f8:b9:47:a5:55:ff:
                    36:13:af:48:2b:cc:14:a3:63:1b:f7:c9:d9:b4:6f:
                    b9:ad:b6:93:01:c9:af:b9:9b:48:ef:01:29:ed:de:
                    ee:11:db:e9:90:eb:57:a4:5b:71:47:ea:35:37:86:
                    eb:e6:2b:f3:fa:c3:d1:9e:48:6d:47:76:d9:89:a0:
                    fe:a0:ca:dd:e3:1f:c7:b5:c9:dd:1c:e9:1f:de:c9:
                    d4:75:0b:2e:32:48:b4:02:48:7e:c5:f6:e1:62:f5:
                    e1:f7:a6:52:74:c0:5c:81:5d:ad:a0:b8:97:65:c1:
                    39:98:6c:f3:fb:e0:cf:ed:6c:29:2c:c1:43:1c:c5:
                    b4:3e:73:16:f5:2d:64:7f:3a:47:f9:5b:10:cf:7e:
                    ed:b0:49:5a:37:f9:5a:78:1f:22:fa:69:b7:10:8f:
                    c5:df:67:5c:ee:96:eb:1a:51:86:39:b7:80:fc:ac:
                    0d:4c:0a:df:b7:24:09:fe:59:d8:67:97:75:48:ed:
                    2a:dc:79:3f:b2:71:3e:97:11:84:20:16:c8:89:65:
                    94:ba:08:06:19:67:f0:0d:57:d3:31:0f:14:16:fc:
                    79:e0:9d:55:7d:a0:a6:f7:04:cd:54:51:cd:12:66:
                    ec:cd:cd:08:59:01:21:7a:20:d6:34:10:81:70:42:
                    a6:3f
                Exponent: 65537 (0x10001)
        X509v3 extensions:
            X509v3 Key Usage: critical
                Certificate Sign, CRL Sign
            X509v3 Basic Constraints: critical
                CA:TRUE, pathlen:0
            X509v3 Subject Key Identifier: 
                8E:84:6B:9D:6C:94:31:05:23:50:25:F5:35:4E:4E:88:7D:9B:C7:36
            X509v3 Authority Key Identifier: 
                keyid:E0:47:F2:68:51:29:39:F5:85:3D:A3:E0:58:4F:83:97:1C:08:5E:1A

    Signature Algorithm: sha256WithRSAEncryption
         32:fc:f4:52:60:5e:a9:e3:33:65:5c:c5:ad:99:90:0b:9f:ea:
         34:34:3f:8f:b7:db:a7:4a:fd:65:fc:bb:ef:38:ad:a9:4b:82:
         00:6f:4d:65:f3:6b:bf:ef:3b:e9:b1:12:ca:9b:d5:cf:e3:ae:
         e7:3f:cf:a3:4e:a5:93:f8:2b:b3:00:35:d9:99:2e:54:2f:3a:
         eb:21:c2:e2:9d:75:66:e7:6c:0a:20:1a:b8:65:36:e1:a3:bb:
         b4:e6:e4:97:dd:7d:be:b3:4f:7d:60:ed:fd:ad:bd:1e:fc:b8:
         2c:14:ed:dd:94:a3:83:67:8b:a3:9a:26:bd:f4:70:7c:18:a0:
         45:30:7d:ac:01:48:ba:7b:42:14:b4:ae:c6:3b:59:7d:01:9c:
         f7:19:2f:3b:65:66:be:33:4e:1d:32:27:e1:24:4d:c2:f1:0f:
         2c:63:fe:b2:0d:d7:ba:c5:61:f0:21:67:ba:92:82:e9:0c:82:
         14:c6:b4:09:4e:22:11:57:e6:26:bd:3a:1a:ef:3c:7f:84:03:
         bf:58:9a:a7:c8:23:56:be:8c:d9:75:94:2c:62:71:24:58:33:
         a7:95:71:d9:fa:96:4f:c7:c4:2f:50:81:9d:17:c6:09:5f:8a:
         48:01:7b:57:91:95:84:00:29:93:7d:1c:8b:98:b6:dc:02:0c:
         dd:62:b8:bb
-----BEGIN CERTIFICATE-----
MIID1zCCAr+gAwIBAgIBAjANBgkqhkiG9w0BAQsFADB4MRMwEQYKCZImiZPyLGQB
GRYDY29tMRcwFQYKCZImiZPyLGQBGRYHZXhhbXBsZTEUMBIGA1UECgwLRXhhbXBs
ZSBJbmMxGDAWBgNVBAsMD0V4YW1wbGUgUm9vdCBDQTEYMBYGA1UEAwwPRXhhbXBs
ZSBSb290IENBMB4XDTE4MDUxMjE1MzYyMFoXDTI4MDUxMTE1MzYyMFowfjETMBEG
CgmSJomT8ixkARkWA2NvbTEXMBUGCgmSJomT8ixkARkWB2V4YW1wbGUxFDASBgNV
BAoMC0V4YW1wbGUgSW5jMRswGQYDVQQLDBJFeGFtcGxlIFNpZ25pbmcgQ0ExGzAZ
BgNVBAMMEkV4YW1wbGUgU2lnbmluZyBDQTCCASIwDQYJKoZIhvcNAQEBBQADggEP
ADCCAQoCggEBAMIp4PcZb89q+LlHpVX/NhOvSCvMFKNjG/fJ2bRvua22kwHJr7mb
SO8BKe3e7hHb6ZDrV6RbcUfqNTeG6+Yr8/rD0Z5IbUd22Ymg/qDK3eMfx7XJ3Rzp
H97J1HULLjJItAJIfsX24WL14femUnTAXIFdraC4l2XBOZhs8/vgz+1sKSzBQxzF
tD5zFvUtZH86R/lbEM9+7bBJWjf5WngfIvpptxCPxd9nXO6W6xpRhjm3gPysDUwK
37ckCf5Z2GeXdUjtKtx5P7JxPpcRhCAWyIlllLoIBhln8A1X0zEPFBb8eeCdVX2g
pvcEzVRRzRJm7M3NCFkBIXog1jQQgXBCpj8CAwEAAaNmMGQwDgYDVR0PAQH/BAQD
AgEGMBIGA1UdEwEB/wQIMAYBAf8CAQAwHQYDVR0OBBYEFI6Ea51slDEFI1Al9TVO
Toh9m8c2MB8GA1UdIwQYMBaAFOBH8mhRKTn1hT2j4FhPg5ccCF4aMA0GCSqGSIb3
DQEBCwUAA4IBAQAy/PRSYF6p4zNlXMWtmZALn+o0ND+Pt9unSv1l/LvvOK2pS4IA
b01l82u/7zvpsRLKm9XP467nP8+jTqWT+CuzADXZmS5ULzrrIcLinXVm52wKIBq4
ZTbho7u05uSX3X2+s099YO39rb0e/LgsFO3dlKODZ4ujmia99HB8GKBFMH2sAUi6
e0IUtK7GO1l9AZz3GS87ZWa+M04dMifhJE3C8Q8sY/6yDde6xWHwIWe6koLpDIIU
xrQJTiIRV+YmvToa7zx/hAO/WJqnyCNWvozZdZQsYnEkWDOnlXHZ+pZPx8QvUIGd
F8YJX4pIAXtXkZWEACmTfRyLmLbcAgzdYri7
-----END CERTIFICATE-----
